
Fire System.elf:     file format elf32-avr

Sections:
Idx Name          Size      VMA       LMA       File off  Algn
  0 .text         00001318  00000000  00000000  00000094  2**1
                  CONTENTS, ALLOC, LOAD, READONLY, CODE
  1 .data         00000108  00800060  00001318  000013ac  2**0
                  CONTENTS, ALLOC, LOAD, DATA
  2 .bss          00000012  00800168  00800168  000014b4  2**0
                  ALLOC
  3 .comment      00000030  00000000  00000000  000014b4  2**0
                  CONTENTS, READONLY
  4 .note.gnu.avr.deviceinfo 0000003c  00000000  00000000  000014e4  2**2
                  CONTENTS, READONLY
  5 .debug_info   000004e6  00000000  00000000  00001520  2**0
                  CONTENTS, READONLY, DEBUGGING
  6 .debug_abbrev 000004a3  00000000  00000000  00001a06  2**0
                  CONTENTS, READONLY, DEBUGGING
  7 .debug_line   00000116  00000000  00000000  00001ea9  2**0
                  CONTENTS, READONLY, DEBUGGING
  8 .debug_str    00000196  00000000  00000000  00001fbf  2**0
                  CONTENTS, READONLY, DEBUGGING

Disassembly of section .text:

00000000 <__vectors>:
       0:	0c 94 6a 00 	jmp	0xd4	; 0xd4 <__ctors_end>
       4:	0c 94 3f 08 	jmp	0x107e	; 0x107e <__vector_1>
       8:	0c 94 68 08 	jmp	0x10d0	; 0x10d0 <__vector_2>
       c:	0c 94 95 08 	jmp	0x112a	; 0x112a <__vector_3>
      10:	0c 94 87 00 	jmp	0x10e	; 0x10e <__bad_interrupt>
      14:	0c 94 87 00 	jmp	0x10e	; 0x10e <__bad_interrupt>
      18:	0c 94 87 00 	jmp	0x10e	; 0x10e <__bad_interrupt>
      1c:	0c 94 87 00 	jmp	0x10e	; 0x10e <__bad_interrupt>
      20:	0c 94 87 00 	jmp	0x10e	; 0x10e <__bad_interrupt>
      24:	0c 94 87 00 	jmp	0x10e	; 0x10e <__bad_interrupt>
      28:	0c 94 87 00 	jmp	0x10e	; 0x10e <__bad_interrupt>
      2c:	0c 94 87 00 	jmp	0x10e	; 0x10e <__bad_interrupt>
      30:	0c 94 87 00 	jmp	0x10e	; 0x10e <__bad_interrupt>
      34:	0c 94 87 00 	jmp	0x10e	; 0x10e <__bad_interrupt>
      38:	0c 94 87 00 	jmp	0x10e	; 0x10e <__bad_interrupt>
      3c:	0c 94 87 00 	jmp	0x10e	; 0x10e <__bad_interrupt>
      40:	0c 94 87 00 	jmp	0x10e	; 0x10e <__bad_interrupt>
      44:	0c 94 a0 07 	jmp	0xf40	; 0xf40 <__vector_17>
      48:	0c 94 87 00 	jmp	0x10e	; 0x10e <__bad_interrupt>
      4c:	0c 94 87 00 	jmp	0x10e	; 0x10e <__bad_interrupt>
      50:	0c 94 87 00 	jmp	0x10e	; 0x10e <__bad_interrupt>
      54:	cd 06       	cpc	r12, r29
      56:	cf 06       	cpc	r12, r31
      58:	d1 06       	cpc	r13, r17
      5a:	d3 06       	cpc	r13, r19
      5c:	d5 06       	cpc	r13, r21
      5e:	d7 06       	cpc	r13, r23
      60:	d9 06       	cpc	r13, r25
      62:	db 06       	cpc	r13, r27
      64:	dd 06       	cpc	r13, r29
      66:	df 06       	cpc	r13, r31
      68:	e1 06       	cpc	r14, r17
      6a:	e3 06       	cpc	r14, r19
      6c:	e5 06       	cpc	r14, r21
      6e:	e7 06       	cpc	r14, r23
      70:	e9 06       	cpc	r14, r25
      72:	eb 06       	cpc	r14, r27
      74:	ed 06       	cpc	r14, r29
      76:	ef 06       	cpc	r14, r31
      78:	f1 06       	cpc	r15, r17
      7a:	f3 06       	cpc	r15, r19
      7c:	f5 06       	cpc	r15, r21
      7e:	f7 06       	cpc	r15, r23
      80:	f9 06       	cpc	r15, r25
      82:	fb 06       	cpc	r15, r27
      84:	fd 06       	cpc	r15, r29
      86:	ff 06       	cpc	r15, r31
      88:	01 07       	cpc	r16, r17
      8a:	03 07       	cpc	r16, r19
      8c:	05 07       	cpc	r16, r21
      8e:	07 07       	cpc	r16, r23
      90:	09 07       	cpc	r16, r25
      92:	0b 07       	cpc	r16, r27
      94:	17 07       	cpc	r17, r23
      96:	19 07       	cpc	r17, r25
      98:	1b 07       	cpc	r17, r27
      9a:	1d 07       	cpc	r17, r29
      9c:	1f 07       	cpc	r17, r31
      9e:	21 07       	cpc	r18, r17
      a0:	23 07       	cpc	r18, r19
      a2:	25 07       	cpc	r18, r21
      a4:	27 07       	cpc	r18, r23
      a6:	29 07       	cpc	r18, r25
      a8:	2b 07       	cpc	r18, r27
      aa:	2d 07       	cpc	r18, r29
      ac:	2f 07       	cpc	r18, r31
      ae:	31 07       	cpc	r19, r17
      b0:	33 07       	cpc	r19, r19
      b2:	35 07       	cpc	r19, r21
      b4:	37 07       	cpc	r19, r23
      b6:	39 07       	cpc	r19, r25
      b8:	3b 07       	cpc	r19, r27
      ba:	3d 07       	cpc	r19, r29
      bc:	3f 07       	cpc	r19, r31
      be:	41 07       	cpc	r20, r17
      c0:	43 07       	cpc	r20, r19
      c2:	45 07       	cpc	r20, r21
      c4:	47 07       	cpc	r20, r23
      c6:	49 07       	cpc	r20, r25
      c8:	4b 07       	cpc	r20, r27
      ca:	4d 07       	cpc	r20, r29
      cc:	4f 07       	cpc	r20, r31
      ce:	51 07       	cpc	r21, r17
      d0:	53 07       	cpc	r21, r19
      d2:	55 07       	cpc	r21, r21

000000d4 <__ctors_end>:
      d4:	11 24       	eor	r1, r1
      d6:	1f be       	out	0x3f, r1	; 63
      d8:	cf e5       	ldi	r28, 0x5F	; 95
      da:	d8 e0       	ldi	r29, 0x08	; 8
      dc:	de bf       	out	0x3e, r29	; 62
      de:	cd bf       	out	0x3d, r28	; 61

000000e0 <__do_copy_data>:
      e0:	11 e0       	ldi	r17, 0x01	; 1
      e2:	a0 e6       	ldi	r26, 0x60	; 96
      e4:	b0 e0       	ldi	r27, 0x00	; 0
      e6:	e8 e1       	ldi	r30, 0x18	; 24
      e8:	f3 e1       	ldi	r31, 0x13	; 19
      ea:	02 c0       	rjmp	.+4      	; 0xf0 <__do_copy_data+0x10>
      ec:	05 90       	lpm	r0, Z+
      ee:	0d 92       	st	X+, r0
      f0:	a8 36       	cpi	r26, 0x68	; 104
      f2:	b1 07       	cpc	r27, r17
      f4:	d9 f7       	brne	.-10     	; 0xec <__do_copy_data+0xc>

000000f6 <__do_clear_bss>:
      f6:	21 e0       	ldi	r18, 0x01	; 1
      f8:	a8 e6       	ldi	r26, 0x68	; 104
      fa:	b1 e0       	ldi	r27, 0x01	; 1
      fc:	01 c0       	rjmp	.+2      	; 0x100 <.do_clear_bss_start>

000000fe <.do_clear_bss_loop>:
      fe:	1d 92       	st	X+, r1

00000100 <.do_clear_bss_start>:
     100:	aa 37       	cpi	r26, 0x7A	; 122
     102:	b2 07       	cpc	r27, r18
     104:	e1 f7       	brne	.-8      	; 0xfe <.do_clear_bss_loop>
     106:	0e 94 5e 02 	call	0x4bc	; 0x4bc <main>
     10a:	0c 94 8a 09 	jmp	0x1314	; 0x1314 <_exit>

0000010e <__bad_interrupt>:
     10e:	0c 94 00 00 	jmp	0	; 0x0 <__vectors>

00000112 <KEYPAD_GetKey>:
     112:	df 92       	push	r13
     114:	ef 92       	push	r14
     116:	ff 92       	push	r15
     118:	0f 93       	push	r16
     11a:	1f 93       	push	r17
     11c:	cf 93       	push	r28
     11e:	df 93       	push	r29
     120:	61 e0       	ldi	r22, 0x01	; 1
     122:	88 e0       	ldi	r24, 0x08	; 8
     124:	0e 94 bd 06 	call	0xd7a	; 0xd7a <DIO_WRitePin>
     128:	61 e0       	ldi	r22, 0x01	; 1
     12a:	89 e0       	ldi	r24, 0x09	; 9
     12c:	0e 94 bd 06 	call	0xd7a	; 0xd7a <DIO_WRitePin>
     130:	61 e0       	ldi	r22, 0x01	; 1
     132:	8a e0       	ldi	r24, 0x0A	; 10
     134:	0e 94 bd 06 	call	0xd7a	; 0xd7a <DIO_WRitePin>
     138:	61 e0       	ldi	r22, 0x01	; 1
     13a:	8b e0       	ldi	r24, 0x0B	; 11
     13c:	0e 94 bd 06 	call	0xd7a	; 0xd7a <DIO_WRitePin>
     140:	96 e6       	ldi	r25, 0x66	; 102
     142:	e9 2e       	mov	r14, r25
     144:	90 e0       	ldi	r25, 0x00	; 0
     146:	f9 2e       	mov	r15, r25
     148:	c8 e0       	ldi	r28, 0x08	; 8
     14a:	de e4       	ldi	r29, 0x4E	; 78
     14c:	60 e0       	ldi	r22, 0x00	; 0
     14e:	8c 2f       	mov	r24, r28
     150:	0e 94 bd 06 	call	0xd7a	; 0xd7a <DIO_WRitePin>
     154:	00 e0       	ldi	r16, 0x00	; 0
     156:	10 e0       	ldi	r17, 0x00	; 0
     158:	8c e0       	ldi	r24, 0x0C	; 12
     15a:	d8 2e       	mov	r13, r24
     15c:	d0 0e       	add	r13, r16
     15e:	8d 2d       	mov	r24, r13
     160:	0e 94 67 07 	call	0xece	; 0xece <DIO_ReadPin>
     164:	81 11       	cpse	r24, r1
     166:	09 c0       	rjmp	.+18     	; 0x17a <KEYPAD_GetKey+0x68>
     168:	f7 01       	movw	r30, r14
     16a:	e0 0f       	add	r30, r16
     16c:	f1 1f       	adc	r31, r17
     16e:	d0 81       	ld	r29, Z
     170:	8d 2d       	mov	r24, r13
     172:	0e 94 67 07 	call	0xece	; 0xece <DIO_ReadPin>
     176:	88 23       	and	r24, r24
     178:	d9 f3       	breq	.-10     	; 0x170 <KEYPAD_GetKey+0x5e>
     17a:	0f 5f       	subi	r16, 0xFF	; 255
     17c:	1f 4f       	sbci	r17, 0xFF	; 255
     17e:	04 30       	cpi	r16, 0x04	; 4
     180:	11 05       	cpc	r17, r1
     182:	51 f7       	brne	.-44     	; 0x158 <KEYPAD_GetKey+0x46>
     184:	61 e0       	ldi	r22, 0x01	; 1
     186:	8c 2f       	mov	r24, r28
     188:	0e 94 bd 06 	call	0xd7a	; 0xd7a <DIO_WRitePin>
     18c:	cf 5f       	subi	r28, 0xFF	; 255
     18e:	84 e0       	ldi	r24, 0x04	; 4
     190:	e8 0e       	add	r14, r24
     192:	f1 1c       	adc	r15, r1
     194:	cc 30       	cpi	r28, 0x0C	; 12
     196:	d1 f6       	brne	.-76     	; 0x14c <KEYPAD_GetKey+0x3a>
     198:	8d 2f       	mov	r24, r29
     19a:	df 91       	pop	r29
     19c:	cf 91       	pop	r28
     19e:	1f 91       	pop	r17
     1a0:	0f 91       	pop	r16
     1a2:	ff 90       	pop	r15
     1a4:	ef 90       	pop	r14
     1a6:	df 90       	pop	r13
     1a8:	08 95       	ret

000001aa <LCD_WriteCommand>:
     1aa:	cf 93       	push	r28
     1ac:	c8 2f       	mov	r28, r24
     1ae:	60 e0       	ldi	r22, 0x00	; 0
     1b0:	88 e1       	ldi	r24, 0x18	; 24
     1b2:	0e 94 bd 06 	call	0xd7a	; 0xd7a <DIO_WRitePin>
     1b6:	6c 2f       	mov	r22, r28
     1b8:	82 e0       	ldi	r24, 0x02	; 2
     1ba:	0e 94 57 07 	call	0xeae	; 0xeae <DIO_WritePort>
     1be:	61 e0       	ldi	r22, 0x01	; 1
     1c0:	89 e1       	ldi	r24, 0x19	; 25
     1c2:	0e 94 bd 06 	call	0xd7a	; 0xd7a <DIO_WRitePin>
     1c6:	8f ec       	ldi	r24, 0xCF	; 207
     1c8:	97 e0       	ldi	r25, 0x07	; 7
     1ca:	01 97       	sbiw	r24, 0x01	; 1
     1cc:	f1 f7       	brne	.-4      	; 0x1ca <LCD_WriteCommand+0x20>
     1ce:	00 c0       	rjmp	.+0      	; 0x1d0 <LCD_WriteCommand+0x26>
     1d0:	00 00       	nop
     1d2:	60 e0       	ldi	r22, 0x00	; 0
     1d4:	89 e1       	ldi	r24, 0x19	; 25
     1d6:	0e 94 bd 06 	call	0xd7a	; 0xd7a <DIO_WRitePin>
     1da:	8f ec       	ldi	r24, 0xCF	; 207
     1dc:	97 e0       	ldi	r25, 0x07	; 7
     1de:	01 97       	sbiw	r24, 0x01	; 1
     1e0:	f1 f7       	brne	.-4      	; 0x1de <LCD_WriteCommand+0x34>
     1e2:	00 c0       	rjmp	.+0      	; 0x1e4 <LCD_WriteCommand+0x3a>
     1e4:	00 00       	nop
     1e6:	cf 91       	pop	r28
     1e8:	08 95       	ret

000001ea <LCD_WriteData>:
     1ea:	cf 93       	push	r28
     1ec:	c8 2f       	mov	r28, r24
     1ee:	61 e0       	ldi	r22, 0x01	; 1
     1f0:	88 e1       	ldi	r24, 0x18	; 24
     1f2:	0e 94 bd 06 	call	0xd7a	; 0xd7a <DIO_WRitePin>
     1f6:	6c 2f       	mov	r22, r28
     1f8:	82 e0       	ldi	r24, 0x02	; 2
     1fa:	0e 94 57 07 	call	0xeae	; 0xeae <DIO_WritePort>
     1fe:	61 e0       	ldi	r22, 0x01	; 1
     200:	89 e1       	ldi	r24, 0x19	; 25
     202:	0e 94 bd 06 	call	0xd7a	; 0xd7a <DIO_WRitePin>
     206:	8f ec       	ldi	r24, 0xCF	; 207
     208:	97 e0       	ldi	r25, 0x07	; 7
     20a:	01 97       	sbiw	r24, 0x01	; 1
     20c:	f1 f7       	brne	.-4      	; 0x20a <LCD_WriteData+0x20>
     20e:	00 c0       	rjmp	.+0      	; 0x210 <LCD_WriteData+0x26>
     210:	00 00       	nop
     212:	60 e0       	ldi	r22, 0x00	; 0
     214:	89 e1       	ldi	r24, 0x19	; 25
     216:	0e 94 bd 06 	call	0xd7a	; 0xd7a <DIO_WRitePin>
     21a:	8f ec       	ldi	r24, 0xCF	; 207
     21c:	97 e0       	ldi	r25, 0x07	; 7
     21e:	01 97       	sbiw	r24, 0x01	; 1
     220:	f1 f7       	brne	.-4      	; 0x21e <LCD_WriteData+0x34>
     222:	00 c0       	rjmp	.+0      	; 0x224 <LCD_WriteData+0x3a>
     224:	00 00       	nop
     226:	cf 91       	pop	r28
     228:	08 95       	ret

0000022a <LCD_init>:
     22a:	2f e7       	ldi	r18, 0x7F	; 127
     22c:	88 e3       	ldi	r24, 0x38	; 56
     22e:	91 e0       	ldi	r25, 0x01	; 1
     230:	21 50       	subi	r18, 0x01	; 1
     232:	80 40       	sbci	r24, 0x00	; 0
     234:	90 40       	sbci	r25, 0x00	; 0
     236:	e1 f7       	brne	.-8      	; 0x230 <LCD_init+0x6>
     238:	00 c0       	rjmp	.+0      	; 0x23a <LCD_init+0x10>
     23a:	00 00       	nop
     23c:	88 e3       	ldi	r24, 0x38	; 56
     23e:	0e 94 d5 00 	call	0x1aa	; 0x1aa <LCD_WriteCommand>
     242:	8e e0       	ldi	r24, 0x0E	; 14
     244:	0e 94 d5 00 	call	0x1aa	; 0x1aa <LCD_WriteCommand>
     248:	81 e0       	ldi	r24, 0x01	; 1
     24a:	0e 94 d5 00 	call	0x1aa	; 0x1aa <LCD_WriteCommand>
     24e:	8f ec       	ldi	r24, 0xCF	; 207
     250:	97 e0       	ldi	r25, 0x07	; 7
     252:	01 97       	sbiw	r24, 0x01	; 1
     254:	f1 f7       	brne	.-4      	; 0x252 <LCD_init+0x28>
     256:	00 c0       	rjmp	.+0      	; 0x258 <LCD_init+0x2e>
     258:	00 00       	nop
     25a:	86 e0       	ldi	r24, 0x06	; 6
     25c:	0c 94 d5 00 	jmp	0x1aa	; 0x1aa <LCD_WriteCommand>

00000260 <LCD_WriteChar>:
     260:	0c 94 f5 00 	jmp	0x1ea	; 0x1ea <LCD_WriteData>

00000264 <LCD_WriteString>:
     264:	0f 93       	push	r16
     266:	1f 93       	push	r17
     268:	cf 93       	push	r28
     26a:	8c 01       	movw	r16, r24
     26c:	c0 e0       	ldi	r28, 0x00	; 0
     26e:	f8 01       	movw	r30, r16
     270:	ec 0f       	add	r30, r28
     272:	f1 1d       	adc	r31, r1
     274:	80 81       	ld	r24, Z
     276:	88 23       	and	r24, r24
     278:	21 f0       	breq	.+8      	; 0x282 <LCD_WriteString+0x1e>
     27a:	0e 94 f5 00 	call	0x1ea	; 0x1ea <LCD_WriteData>
     27e:	cf 5f       	subi	r28, 0xFF	; 255
     280:	f6 cf       	rjmp	.-20     	; 0x26e <LCD_WriteString+0xa>
     282:	cf 91       	pop	r28
     284:	1f 91       	pop	r17
     286:	0f 91       	pop	r16
     288:	08 95       	ret

0000028a <LCD_ReverseString>:
     28a:	ac 01       	movw	r20, r24
     28c:	90 e0       	ldi	r25, 0x00	; 0
     28e:	fa 01       	movw	r30, r20
     290:	e9 0f       	add	r30, r25
     292:	f1 1d       	adc	r31, r1
     294:	80 81       	ld	r24, Z
     296:	88 23       	and	r24, r24
     298:	11 f0       	breq	.+4      	; 0x29e <LCD_ReverseString+0x14>
     29a:	9f 5f       	subi	r25, 0xFF	; 255
     29c:	f8 cf       	rjmp	.-16     	; 0x28e <LCD_ReverseString+0x4>
     29e:	2f ef       	ldi	r18, 0xFF	; 255
     2a0:	29 0f       	add	r18, r25
     2a2:	fa 01       	movw	r30, r20
     2a4:	96 95       	lsr	r25
     2a6:	82 2f       	mov	r24, r18
     2a8:	89 1b       	sub	r24, r25
     2aa:	28 17       	cp	r18, r24
     2ac:	49 f0       	breq	.+18     	; 0x2c0 <LCD_ReverseString+0x36>
     2ae:	90 81       	ld	r25, Z
     2b0:	da 01       	movw	r26, r20
     2b2:	a2 0f       	add	r26, r18
     2b4:	b1 1d       	adc	r27, r1
     2b6:	3c 91       	ld	r19, X
     2b8:	31 93       	st	Z+, r19
     2ba:	9c 93       	st	X, r25
     2bc:	21 50       	subi	r18, 0x01	; 1
     2be:	f5 cf       	rjmp	.-22     	; 0x2aa <LCD_ReverseString+0x20>
     2c0:	08 95       	ret

000002c2 <LCD_WriteNumber>:
     2c2:	4f 92       	push	r4
     2c4:	5f 92       	push	r5
     2c6:	6f 92       	push	r6
     2c8:	7f 92       	push	r7
     2ca:	8f 92       	push	r8
     2cc:	9f 92       	push	r9
     2ce:	bf 92       	push	r11
     2d0:	cf 92       	push	r12
     2d2:	df 92       	push	r13
     2d4:	ef 92       	push	r14
     2d6:	ff 92       	push	r15
     2d8:	0f 93       	push	r16
     2da:	1f 93       	push	r17
     2dc:	cf 93       	push	r28
     2de:	df 93       	push	r29
     2e0:	cd b7       	in	r28, 0x3d	; 61
     2e2:	de b7       	in	r29, 0x3e	; 62
     2e4:	64 97       	sbiw	r28, 0x14	; 20
     2e6:	0f b6       	in	r0, 0x3f	; 63
     2e8:	f8 94       	cli
     2ea:	de bf       	out	0x3e, r29	; 62
     2ec:	0f be       	out	0x3f, r0	; 63
     2ee:	cd bf       	out	0x3d, r28	; 61
     2f0:	6b 01       	movw	r12, r22
     2f2:	7c 01       	movw	r14, r24
     2f4:	8e 01       	movw	r16, r28
     2f6:	0f 5f       	subi	r16, 0xFF	; 255
     2f8:	1f 4f       	sbci	r17, 0xFF	; 255
     2fa:	84 e1       	ldi	r24, 0x14	; 20
     2fc:	f8 01       	movw	r30, r16
     2fe:	11 92       	st	Z+, r1
     300:	8a 95       	dec	r24
     302:	e9 f7       	brne	.-6      	; 0x2fe <LCD_WriteNumber+0x3c>
     304:	c1 14       	cp	r12, r1
     306:	d1 04       	cpc	r13, r1
     308:	e1 04       	cpc	r14, r1
     30a:	f1 04       	cpc	r15, r1
     30c:	21 f4       	brne	.+8      	; 0x316 <LCD_WriteNumber+0x54>
     30e:	80 e3       	ldi	r24, 0x30	; 48
     310:	0e 94 f5 00 	call	0x1ea	; 0x1ea <LCD_WriteData>
     314:	31 c0       	rjmp	.+98     	; 0x378 <LCD_WriteNumber+0xb6>
     316:	f7 fe       	sbrs	r15, 7
     318:	0b c0       	rjmp	.+22     	; 0x330 <LCD_WriteNumber+0x6e>
     31a:	f0 94       	com	r15
     31c:	e0 94       	com	r14
     31e:	d0 94       	com	r13
     320:	c0 94       	com	r12
     322:	c1 1c       	adc	r12, r1
     324:	d1 1c       	adc	r13, r1
     326:	e1 1c       	adc	r14, r1
     328:	f1 1c       	adc	r15, r1
     32a:	8d e2       	ldi	r24, 0x2D	; 45
     32c:	0e 94 f5 00 	call	0x1ea	; 0x1ea <LCD_WriteData>
     330:	b1 2c       	mov	r11, r1
     332:	8a e0       	ldi	r24, 0x0A	; 10
     334:	48 2e       	mov	r4, r24
     336:	51 2c       	mov	r5, r1
     338:	61 2c       	mov	r6, r1
     33a:	71 2c       	mov	r7, r1
     33c:	48 01       	movw	r8, r16
     33e:	8b 0c       	add	r8, r11
     340:	91 1c       	adc	r9, r1
     342:	c7 01       	movw	r24, r14
     344:	b6 01       	movw	r22, r12
     346:	a3 01       	movw	r20, r6
     348:	92 01       	movw	r18, r4
     34a:	0e 94 56 09 	call	0x12ac	; 0x12ac <__divmodsi4>
     34e:	60 5d       	subi	r22, 0xD0	; 208
     350:	f4 01       	movw	r30, r8
     352:	60 83       	st	Z, r22
     354:	69 01       	movw	r12, r18
     356:	7a 01       	movw	r14, r20
     358:	b3 94       	inc	r11
     35a:	c1 14       	cp	r12, r1
     35c:	d1 04       	cpc	r13, r1
     35e:	e1 04       	cpc	r14, r1
     360:	f1 04       	cpc	r15, r1
     362:	61 f7       	brne	.-40     	; 0x33c <LCD_WriteNumber+0x7a>
     364:	f8 01       	movw	r30, r16
     366:	eb 0d       	add	r30, r11
     368:	f1 1d       	adc	r31, r1
     36a:	10 82       	st	Z, r1
     36c:	c8 01       	movw	r24, r16
     36e:	0e 94 45 01 	call	0x28a	; 0x28a <LCD_ReverseString>
     372:	c8 01       	movw	r24, r16
     374:	0e 94 32 01 	call	0x264	; 0x264 <LCD_WriteString>
     378:	64 96       	adiw	r28, 0x14	; 20
     37a:	0f b6       	in	r0, 0x3f	; 63
     37c:	f8 94       	cli
     37e:	de bf       	out	0x3e, r29	; 62
     380:	0f be       	out	0x3f, r0	; 63
     382:	cd bf       	out	0x3d, r28	; 61
     384:	df 91       	pop	r29
     386:	cf 91       	pop	r28
     388:	1f 91       	pop	r17
     38a:	0f 91       	pop	r16
     38c:	ff 90       	pop	r15
     38e:	ef 90       	pop	r14
     390:	df 90       	pop	r13
     392:	cf 90       	pop	r12
     394:	bf 90       	pop	r11
     396:	9f 90       	pop	r9
     398:	8f 90       	pop	r8
     39a:	7f 90       	pop	r7
     39c:	6f 90       	pop	r6
     39e:	5f 90       	pop	r5
     3a0:	4f 90       	pop	r4
     3a2:	08 95       	ret

000003a4 <LCD_GoTo>:
     3a4:	81 11       	cpse	r24, r1
     3a6:	02 c0       	rjmp	.+4      	; 0x3ac <LCD_GoTo+0x8>
     3a8:	80 e8       	ldi	r24, 0x80	; 128
     3aa:	03 c0       	rjmp	.+6      	; 0x3b2 <LCD_GoTo+0xe>
     3ac:	81 30       	cpi	r24, 0x01	; 1
     3ae:	21 f4       	brne	.+8      	; 0x3b8 <LCD_GoTo+0x14>
     3b0:	80 ec       	ldi	r24, 0xC0	; 192
     3b2:	86 0f       	add	r24, r22
     3b4:	0c 94 d5 00 	jmp	0x1aa	; 0x1aa <LCD_WriteCommand>
     3b8:	08 95       	ret

000003ba <LCD_Clear>:
     3ba:	81 e0       	ldi	r24, 0x01	; 1
     3bc:	0c 94 d5 00 	jmp	0x1aa	; 0x1aa <LCD_WriteCommand>

000003c0 <Clock_Wise>:
     3c0:	61 e0       	ldi	r22, 0x01	; 1
     3c2:	8c e1       	ldi	r24, 0x1C	; 28
     3c4:	0e 94 bd 06 	call	0xd7a	; 0xd7a <DIO_WRitePin>
     3c8:	60 e0       	ldi	r22, 0x00	; 0
     3ca:	8d e1       	ldi	r24, 0x1D	; 29
     3cc:	0c 94 bd 06 	jmp	0xd7a	; 0xd7a <DIO_WRitePin>

000003d0 <Stop>:
     3d0:	60 e0       	ldi	r22, 0x00	; 0
     3d2:	8c e1       	ldi	r24, 0x1C	; 28
     3d4:	0e 94 bd 06 	call	0xd7a	; 0xd7a <DIO_WRitePin>
     3d8:	60 e0       	ldi	r22, 0x00	; 0
     3da:	8d e1       	ldi	r24, 0x1D	; 29
     3dc:	0c 94 bd 06 	jmp	0xd7a	; 0xd7a <DIO_WRitePin>

000003e0 <LM35_GetTemp>:
     3e0:	80 e0       	ldi	r24, 0x00	; 0
     3e2:	0e 94 8e 05 	call	0xb1c	; 0xb1c <ADC_Read>
     3e6:	9c 01       	movw	r18, r24
     3e8:	ac ed       	ldi	r26, 0xDC	; 220
     3ea:	b5 e0       	ldi	r27, 0x05	; 5
     3ec:	0e 94 7b 09 	call	0x12f6	; 0x12f6 <__umulhisi3>
     3f0:	24 e3       	ldi	r18, 0x34	; 52
     3f2:	31 e0       	ldi	r19, 0x01	; 1
     3f4:	40 e0       	ldi	r20, 0x00	; 0
     3f6:	50 e0       	ldi	r21, 0x00	; 0
     3f8:	0e 94 34 09 	call	0x1268	; 0x1268 <__udivmodsi4>
     3fc:	c9 01       	movw	r24, r18
     3fe:	08 95       	ret

00000400 <Smoke_GetRate>:
     400:	85 e0       	ldi	r24, 0x05	; 5
     402:	0e 94 8e 05 	call	0xb1c	; 0xb1c <ADC_Read>
     406:	9c 01       	movw	r18, r24
     408:	27 53       	subi	r18, 0x37	; 55
     40a:	31 09       	sbc	r19, r1
     40c:	a8 ee       	ldi	r26, 0xE8	; 232
     40e:	b3 e0       	ldi	r27, 0x03	; 3
     410:	0e 94 7b 09 	call	0x12f6	; 0x12f6 <__umulhisi3>
     414:	29 e9       	ldi	r18, 0x99	; 153
     416:	33 e0       	ldi	r19, 0x03	; 3
     418:	40 e0       	ldi	r20, 0x00	; 0
     41a:	50 e0       	ldi	r21, 0x00	; 0
     41c:	0e 94 34 09 	call	0x1268	; 0x1268 <__udivmodsi4>
     420:	c9 01       	movw	r24, r18
     422:	8a 56       	subi	r24, 0x6A	; 106
     424:	9f 4f       	sbci	r25, 0xFF	; 255
     426:	08 95       	ret

00000428 <print>:
     428:	ef 92       	push	r14
     42a:	ff 92       	push	r15
     42c:	0f 93       	push	r16
     42e:	1f 93       	push	r17
     430:	cf 93       	push	r28
     432:	df 93       	push	r29
     434:	ec 01       	movw	r28, r24
     436:	7b 01       	movw	r14, r22
     438:	60 e0       	ldi	r22, 0x00	; 0
     43a:	80 e0       	ldi	r24, 0x00	; 0
     43c:	0e 94 d2 01 	call	0x3a4	; 0x3a4 <LCD_GoTo>
     440:	86 e7       	ldi	r24, 0x76	; 118
     442:	90 e0       	ldi	r25, 0x00	; 0
     444:	0e 94 32 01 	call	0x264	; 0x264 <LCD_WriteString>
     448:	63 e2       	ldi	r22, 0x23	; 35
     44a:	80 e0       	ldi	r24, 0x00	; 0
     44c:	0e 94 d2 01 	call	0x3a4	; 0x3a4 <LCD_GoTo>
     450:	82 e8       	ldi	r24, 0x82	; 130
     452:	90 e0       	ldi	r25, 0x00	; 0
     454:	0e 94 32 01 	call	0x264	; 0x264 <LCD_WriteString>
     458:	60 e0       	ldi	r22, 0x00	; 0
     45a:	81 e0       	ldi	r24, 0x01	; 1
     45c:	0e 94 d2 01 	call	0x3a4	; 0x3a4 <LCD_GoTo>
     460:	0a e0       	ldi	r16, 0x0A	; 10
     462:	10 e0       	ldi	r17, 0x00	; 0
     464:	ce 01       	movw	r24, r28
     466:	b8 01       	movw	r22, r16
     468:	0e 94 20 09 	call	0x1240	; 0x1240 <__udivmodhi4>
     46c:	ec 01       	movw	r28, r24
     46e:	80 e0       	ldi	r24, 0x00	; 0
     470:	90 e0       	ldi	r25, 0x00	; 0
     472:	0e 94 61 01 	call	0x2c2	; 0x2c2 <LCD_WriteNumber>
     476:	8e e2       	ldi	r24, 0x2E	; 46
     478:	0e 94 30 01 	call	0x260	; 0x260 <LCD_WriteChar>
     47c:	be 01       	movw	r22, r28
     47e:	80 e0       	ldi	r24, 0x00	; 0
     480:	90 e0       	ldi	r25, 0x00	; 0
     482:	0e 94 61 01 	call	0x2c2	; 0x2c2 <LCD_WriteNumber>
     486:	63 e2       	ldi	r22, 0x23	; 35
     488:	81 e0       	ldi	r24, 0x01	; 1
     48a:	0e 94 d2 01 	call	0x3a4	; 0x3a4 <LCD_GoTo>
     48e:	c7 01       	movw	r24, r14
     490:	b8 01       	movw	r22, r16
     492:	0e 94 20 09 	call	0x1240	; 0x1240 <__udivmodhi4>
     496:	ec 01       	movw	r28, r24
     498:	80 e0       	ldi	r24, 0x00	; 0
     49a:	90 e0       	ldi	r25, 0x00	; 0
     49c:	0e 94 61 01 	call	0x2c2	; 0x2c2 <LCD_WriteNumber>
     4a0:	8e e2       	ldi	r24, 0x2E	; 46
     4a2:	0e 94 30 01 	call	0x260	; 0x260 <LCD_WriteChar>
     4a6:	be 01       	movw	r22, r28
     4a8:	80 e0       	ldi	r24, 0x00	; 0
     4aa:	90 e0       	ldi	r25, 0x00	; 0
     4ac:	df 91       	pop	r29
     4ae:	cf 91       	pop	r28
     4b0:	1f 91       	pop	r17
     4b2:	0f 91       	pop	r16
     4b4:	ff 90       	pop	r15
     4b6:	ef 90       	pop	r14
     4b8:	0c 94 61 01 	jmp	0x2c2	; 0x2c2 <LCD_WriteNumber>

000004bc <main>:
     4bc:	78 94       	sei
     4be:	0e 94 aa 06 	call	0xd54	; 0xd54 <DIO_init>
     4c2:	0e 94 15 01 	call	0x22a	; 0x22a <LCD_init>
     4c6:	66 e0       	ldi	r22, 0x06	; 6
     4c8:	81 e0       	ldi	r24, 0x01	; 1
     4ca:	0e 94 78 05 	call	0xaf0	; 0xaf0 <ADC_init>
     4ce:	80 e0       	ldi	r24, 0x00	; 0
     4d0:	0e 94 de 07 	call	0xfbc	; 0xfbc <EXI_Enable>
     4d4:	62 e0       	ldi	r22, 0x02	; 2
     4d6:	80 e0       	ldi	r24, 0x00	; 0
     4d8:	0e 94 ee 07 	call	0xfdc	; 0xfdc <EXI_Trigger>
     4dc:	69 e6       	ldi	r22, 0x69	; 105
     4de:	74 e0       	ldi	r23, 0x04	; 4
     4e0:	80 e0       	ldi	r24, 0x00	; 0
     4e2:	0e 94 c9 07 	call	0xf92	; 0xf92 <EXI_SetCallBack>
     4e6:	80 91 60 00 	lds	r24, 0x0060	; 0x800060 <__DATA_REGION_ORIGIN__>
     4ea:	90 91 61 00 	lds	r25, 0x0061	; 0x800061 <__DATA_REGION_ORIGIN__+0x1>
     4ee:	0e 94 99 07 	call	0xf32	; 0xf32 <EEPROM_Read>
     4f2:	8f 3f       	cpi	r24, 0xFF	; 255
     4f4:	09 f0       	breq	.+2      	; 0x4f8 <main+0x3c>
     4f6:	65 c0       	rjmp	.+202    	; 0x5c2 <main+0x106>
     4f8:	60 e0       	ldi	r22, 0x00	; 0
     4fa:	80 e0       	ldi	r24, 0x00	; 0
     4fc:	0e 94 d2 01 	call	0x3a4	; 0x3a4 <LCD_GoTo>
     500:	88 e8       	ldi	r24, 0x88	; 136
     502:	90 e0       	ldi	r25, 0x00	; 0
     504:	0e 94 32 01 	call	0x264	; 0x264 <LCD_WriteString>
     508:	60 e0       	ldi	r22, 0x00	; 0
     50a:	81 e0       	ldi	r24, 0x01	; 1
     50c:	0e 94 d2 01 	call	0x3a4	; 0x3a4 <LCD_GoTo>
     510:	84 e9       	ldi	r24, 0x94	; 148
     512:	90 e0       	ldi	r25, 0x00	; 0
     514:	0e 94 32 01 	call	0x264	; 0x264 <LCD_WriteString>
     518:	2f ef       	ldi	r18, 0xFF	; 255
     51a:	89 e6       	ldi	r24, 0x69	; 105
     51c:	98 e1       	ldi	r25, 0x18	; 24
     51e:	21 50       	subi	r18, 0x01	; 1
     520:	80 40       	sbci	r24, 0x00	; 0
     522:	90 40       	sbci	r25, 0x00	; 0
     524:	e1 f7       	brne	.-8      	; 0x51e <main+0x62>
     526:	00 c0       	rjmp	.+0      	; 0x528 <main+0x6c>
     528:	00 00       	nop
     52a:	0e 94 dd 01 	call	0x3ba	; 0x3ba <LCD_Clear>
     52e:	81 ea       	ldi	r24, 0xA1	; 161
     530:	90 e0       	ldi	r25, 0x00	; 0
     532:	0e 94 32 01 	call	0x264	; 0x264 <LCD_WriteString>
     536:	60 e0       	ldi	r22, 0x00	; 0
     538:	81 e0       	ldi	r24, 0x01	; 1
     53a:	0e 94 d2 01 	call	0x3a4	; 0x3a4 <LCD_GoTo>
     53e:	c0 e0       	ldi	r28, 0x00	; 0
     540:	00 e0       	ldi	r16, 0x00	; 0
     542:	10 e0       	ldi	r17, 0x00	; 0
     544:	2a e0       	ldi	r18, 0x0A	; 10
     546:	f2 2e       	mov	r15, r18
     548:	0e 94 89 00 	call	0x112	; 0x112 <KEYPAD_GetKey>
     54c:	d8 2f       	mov	r29, r24
     54e:	80 ed       	ldi	r24, 0xD0	; 208
     550:	8d 0f       	add	r24, r29
     552:	8a 30       	cpi	r24, 0x0A	; 10
     554:	10 f5       	brcc	.+68     	; 0x59a <main+0xde>
     556:	f0 9e       	mul	r15, r16
     558:	c0 01       	movw	r24, r0
     55a:	f1 9e       	mul	r15, r17
     55c:	90 0d       	add	r25, r0
     55e:	11 24       	eor	r1, r1
     560:	8c 01       	movw	r16, r24
     562:	0d 0f       	add	r16, r29
     564:	11 1d       	adc	r17, r1
     566:	00 53       	subi	r16, 0x30	; 48
     568:	11 09       	sbc	r17, r1
     56a:	6c 2f       	mov	r22, r28
     56c:	81 e0       	ldi	r24, 0x01	; 1
     56e:	0e 94 d2 01 	call	0x3a4	; 0x3a4 <LCD_GoTo>
     572:	8d 2f       	mov	r24, r29
     574:	0e 94 30 01 	call	0x260	; 0x260 <LCD_WriteChar>
     578:	2f ef       	ldi	r18, 0xFF	; 255
     57a:	82 e5       	ldi	r24, 0x52	; 82
     57c:	97 e0       	ldi	r25, 0x07	; 7
     57e:	21 50       	subi	r18, 0x01	; 1
     580:	80 40       	sbci	r24, 0x00	; 0
     582:	90 40       	sbci	r25, 0x00	; 0
     584:	e1 f7       	brne	.-8      	; 0x57e <main+0xc2>
     586:	00 c0       	rjmp	.+0      	; 0x588 <main+0xcc>
     588:	00 00       	nop
     58a:	6c 2f       	mov	r22, r28
     58c:	81 e0       	ldi	r24, 0x01	; 1
     58e:	0e 94 d2 01 	call	0x3a4	; 0x3a4 <LCD_GoTo>
     592:	8a e2       	ldi	r24, 0x2A	; 42
     594:	0e 94 30 01 	call	0x260	; 0x260 <LCD_WriteChar>
     598:	cf 5f       	subi	r28, 0xFF	; 255
     59a:	c4 30       	cpi	r28, 0x04	; 4
     59c:	a8 f2       	brcs	.-86     	; 0x548 <main+0x8c>
     59e:	10 93 71 01 	sts	0x0171, r17	; 0x800171 <password+0x1>
     5a2:	00 93 70 01 	sts	0x0170, r16	; 0x800170 <password>
     5a6:	61 e0       	ldi	r22, 0x01	; 1
     5a8:	80 91 60 00 	lds	r24, 0x0060	; 0x800060 <__DATA_REGION_ORIGIN__>
     5ac:	90 91 61 00 	lds	r25, 0x0061	; 0x800061 <__DATA_REGION_ORIGIN__+0x1>
     5b0:	0e 94 8b 07 	call	0xf16	; 0xf16 <EEPROM_Write>
     5b4:	60 e0       	ldi	r22, 0x00	; 0
     5b6:	80 91 64 00 	lds	r24, 0x0064	; 0x800064 <Ubdate_passwordAdress>
     5ba:	90 91 65 00 	lds	r25, 0x0065	; 0x800065 <Ubdate_passwordAdress+0x1>
     5be:	0e 94 8b 07 	call	0xf16	; 0xf16 <EEPROM_Write>
     5c2:	80 91 64 00 	lds	r24, 0x0064	; 0x800064 <Ubdate_passwordAdress>
     5c6:	90 91 65 00 	lds	r25, 0x0065	; 0x800065 <Ubdate_passwordAdress+0x1>
     5ca:	0e 94 99 07 	call	0xf32	; 0xf32 <EEPROM_Read>
     5ce:	81 11       	cpse	r24, r1
     5d0:	12 c0       	rjmp	.+36     	; 0x5f6 <main+0x13a>
     5d2:	60 91 70 01 	lds	r22, 0x0170	; 0x800170 <password>
     5d6:	70 91 71 01 	lds	r23, 0x0171	; 0x800171 <password+0x1>
     5da:	80 91 6e 01 	lds	r24, 0x016E	; 0x80016e <Password_Adress>
     5de:	90 91 6f 01 	lds	r25, 0x016F	; 0x80016f <Password_Adress+0x1>
     5e2:	0e 94 c2 08 	call	0x1184	; 0x1184 <EEPROM_WritePassword_4Number>
     5e6:	61 e0       	ldi	r22, 0x01	; 1
     5e8:	80 91 64 00 	lds	r24, 0x0064	; 0x800064 <Ubdate_passwordAdress>
     5ec:	90 91 65 00 	lds	r25, 0x0065	; 0x800065 <Ubdate_passwordAdress+0x1>
     5f0:	0e 94 8b 07 	call	0xf16	; 0xf16 <EEPROM_Write>
     5f4:	12 c0       	rjmp	.+36     	; 0x61a <main+0x15e>
     5f6:	80 91 64 00 	lds	r24, 0x0064	; 0x800064 <Ubdate_passwordAdress>
     5fa:	90 91 65 00 	lds	r25, 0x0065	; 0x800065 <Ubdate_passwordAdress+0x1>
     5fe:	0e 94 99 07 	call	0xf32	; 0xf32 <EEPROM_Read>
     602:	81 30       	cpi	r24, 0x01	; 1
     604:	51 f4       	brne	.+20     	; 0x61a <main+0x15e>
     606:	80 91 6e 01 	lds	r24, 0x016E	; 0x80016e <Password_Adress>
     60a:	90 91 6f 01 	lds	r25, 0x016F	; 0x80016f <Password_Adress+0x1>
     60e:	0e 94 e7 08 	call	0x11ce	; 0x11ce <EEPROM_ReadPassword_4Number>
     612:	90 93 71 01 	sts	0x0171, r25	; 0x800171 <password+0x1>
     616:	80 93 70 01 	sts	0x0170, r24	; 0x800170 <password>
     61a:	80 91 62 00 	lds	r24, 0x0062	; 0x800062 <Enter_Password_Flag_Adress>
     61e:	90 91 63 00 	lds	r25, 0x0063	; 0x800063 <Enter_Password_Flag_Adress+0x1>
     622:	0e 94 99 07 	call	0xf32	; 0xf32 <EEPROM_Read>
     626:	80 93 69 01 	sts	0x0169, r24	; 0x800169 <Enter_Password_Flag>
     62a:	f1 2c       	mov	r15, r1
     62c:	9a e0       	ldi	r25, 0x0A	; 10
     62e:	c9 2e       	mov	r12, r25
     630:	0e 94 f0 01 	call	0x3e0	; 0x3e0 <LM35_GetTemp>
     634:	90 93 6d 01 	sts	0x016D, r25	; 0x80016d <temp+0x1>
     638:	80 93 6c 01 	sts	0x016C, r24	; 0x80016c <temp>
     63c:	0e 94 00 02 	call	0x400	; 0x400 <Smoke_GetRate>
     640:	bc 01       	movw	r22, r24
     642:	90 93 6b 01 	sts	0x016B, r25	; 0x80016b <smoke+0x1>
     646:	80 93 6a 01 	sts	0x016A, r24	; 0x80016a <smoke>
     64a:	80 91 6c 01 	lds	r24, 0x016C	; 0x80016c <temp>
     64e:	90 91 6d 01 	lds	r25, 0x016D	; 0x80016d <temp+0x1>
     652:	9c 01       	movw	r18, r24
     654:	21 59       	subi	r18, 0x91	; 145
     656:	31 40       	sbci	r19, 0x01	; 1
     658:	21 33       	cpi	r18, 0x31	; 49
     65a:	31 05       	cpc	r19, r1
     65c:	a8 f4       	brcc	.+42     	; 0x688 <main+0x1cc>
     65e:	80 91 69 01 	lds	r24, 0x0169	; 0x800169 <Enter_Password_Flag>
     662:	88 23       	and	r24, r24
     664:	09 f4       	brne	.+2      	; 0x668 <main+0x1ac>
     666:	4f c0       	rjmp	.+158    	; 0x706 <main+0x24a>
     668:	f1 10       	cpse	r15, r1
     66a:	02 c0       	rjmp	.+4      	; 0x670 <main+0x1b4>
     66c:	0e 94 dd 01 	call	0x3ba	; 0x3ba <LCD_Clear>
     670:	60 91 6a 01 	lds	r22, 0x016A	; 0x80016a <smoke>
     674:	70 91 6b 01 	lds	r23, 0x016B	; 0x80016b <smoke+0x1>
     678:	80 91 6c 01 	lds	r24, 0x016C	; 0x80016c <temp>
     67c:	90 91 6d 01 	lds	r25, 0x016D	; 0x80016d <temp+0x1>
     680:	0e 94 14 02 	call	0x428	; 0x428 <print>
     684:	f3 94       	inc	r15
     686:	3f c0       	rjmp	.+126    	; 0x706 <main+0x24a>
     688:	81 39       	cpi	r24, 0x91	; 145
     68a:	21 e0       	ldi	r18, 0x01	; 1
     68c:	92 07       	cpc	r25, r18
     68e:	c8 f4       	brcc	.+50     	; 0x6c2 <main+0x206>
     690:	64 3f       	cpi	r22, 0xF4	; 244
     692:	21 e0       	ldi	r18, 0x01	; 1
     694:	72 07       	cpc	r23, r18
     696:	b8 f5       	brcc	.+110    	; 0x706 <main+0x24a>
     698:	20 91 69 01 	lds	r18, 0x0169	; 0x800169 <Enter_Password_Flag>
     69c:	22 23       	and	r18, r18
     69e:	99 f1       	breq	.+102    	; 0x706 <main+0x24a>
     6a0:	0e 94 14 02 	call	0x428	; 0x428 <print>
     6a4:	61 e1       	ldi	r22, 0x11	; 17
     6a6:	81 e0       	ldi	r24, 0x01	; 1
     6a8:	0e 94 d2 01 	call	0x3a4	; 0x3a4 <LCD_GoTo>
     6ac:	8a ea       	ldi	r24, 0xAA	; 170
     6ae:	90 e0       	ldi	r25, 0x00	; 0
     6b0:	0e 94 32 01 	call	0x264	; 0x264 <LCD_WriteString>
     6b4:	0e 94 e8 01 	call	0x3d0	; 0x3d0 <Stop>
     6b8:	60 e0       	ldi	r22, 0x00	; 0
     6ba:	8e e1       	ldi	r24, 0x1E	; 30
     6bc:	0e 94 bd 06 	call	0xd7a	; 0xd7a <DIO_WRitePin>
     6c0:	22 c0       	rjmp	.+68     	; 0x706 <main+0x24a>
     6c2:	82 3c       	cpi	r24, 0xC2	; 194
     6c4:	91 40       	sbci	r25, 0x01	; 1
     6c6:	f8 f0       	brcs	.+62     	; 0x706 <main+0x24a>
     6c8:	64 3f       	cpi	r22, 0xF4	; 244
     6ca:	71 40       	sbci	r23, 0x01	; 1
     6cc:	e0 f4       	brcc	.+56     	; 0x706 <main+0x24a>
     6ce:	80 91 69 01 	lds	r24, 0x0169	; 0x800169 <Enter_Password_Flag>
     6d2:	88 23       	and	r24, r24
     6d4:	c1 f0       	breq	.+48     	; 0x706 <main+0x24a>
     6d6:	0e 94 e0 01 	call	0x3c0	; 0x3c0 <Clock_Wise>
     6da:	61 e0       	ldi	r22, 0x01	; 1
     6dc:	8e e1       	ldi	r24, 0x1E	; 30
     6de:	0e 94 bd 06 	call	0xd7a	; 0xd7a <DIO_WRitePin>
     6e2:	60 91 6a 01 	lds	r22, 0x016A	; 0x80016a <smoke>
     6e6:	70 91 6b 01 	lds	r23, 0x016B	; 0x80016b <smoke+0x1>
     6ea:	80 91 6c 01 	lds	r24, 0x016C	; 0x80016c <temp>
     6ee:	90 91 6d 01 	lds	r25, 0x016D	; 0x80016d <temp+0x1>
     6f2:	0e 94 14 02 	call	0x428	; 0x428 <print>
     6f6:	61 e1       	ldi	r22, 0x11	; 17
     6f8:	81 e0       	ldi	r24, 0x01	; 1
     6fa:	0e 94 d2 01 	call	0x3a4	; 0x3a4 <LCD_GoTo>
     6fe:	8f ea       	ldi	r24, 0xAF	; 175
     700:	90 e0       	ldi	r25, 0x00	; 0
     702:	0e 94 32 01 	call	0x264	; 0x264 <LCD_WriteString>
     706:	80 91 6a 01 	lds	r24, 0x016A	; 0x80016a <smoke>
     70a:	90 91 6b 01 	lds	r25, 0x016B	; 0x80016b <smoke+0x1>
     70e:	87 32       	cpi	r24, 0x27	; 39
     710:	92 40       	sbci	r25, 0x02	; 2
     712:	20 f4       	brcc	.+8      	; 0x71c <main+0x260>
     714:	80 91 69 01 	lds	r24, 0x0169	; 0x800169 <Enter_Password_Flag>
     718:	81 11       	cpse	r24, r1
     71a:	8a cf       	rjmp	.-236    	; 0x630 <main+0x174>
     71c:	60 e0       	ldi	r22, 0x00	; 0
     71e:	80 91 62 00 	lds	r24, 0x0062	; 0x800062 <Enter_Password_Flag_Adress>
     722:	90 91 63 00 	lds	r25, 0x0063	; 0x800063 <Enter_Password_Flag_Adress+0x1>
     726:	0e 94 8b 07 	call	0xf16	; 0xf16 <EEPROM_Write>
     72a:	f8 94       	cli
     72c:	80 91 69 01 	lds	r24, 0x0169	; 0x800169 <Enter_Password_Flag>
     730:	88 23       	and	r24, r24
     732:	41 f1       	breq	.+80     	; 0x784 <main+0x2c8>
     734:	0e 94 e0 01 	call	0x3c0	; 0x3c0 <Clock_Wise>
     738:	61 e0       	ldi	r22, 0x01	; 1
     73a:	8f e1       	ldi	r24, 0x1F	; 31
     73c:	0e 94 bd 06 	call	0xd7a	; 0xd7a <DIO_WRitePin>
     740:	60 e0       	ldi	r22, 0x00	; 0
     742:	8e e1       	ldi	r24, 0x1E	; 30
     744:	0e 94 bd 06 	call	0xd7a	; 0xd7a <DIO_WRitePin>
     748:	0e 94 dd 01 	call	0x3ba	; 0x3ba <LCD_Clear>
     74c:	6a e0       	ldi	r22, 0x0A	; 10
     74e:	81 e0       	ldi	r24, 0x01	; 1
     750:	0e 94 d2 01 	call	0x3a4	; 0x3a4 <LCD_GoTo>
     754:	84 eb       	ldi	r24, 0xB4	; 180
     756:	90 e0       	ldi	r25, 0x00	; 0
     758:	0e 94 32 01 	call	0x264	; 0x264 <LCD_WriteString>
     75c:	8f ef       	ldi	r24, 0xFF	; 255
     75e:	99 e6       	ldi	r25, 0x69	; 105
     760:	28 e1       	ldi	r18, 0x18	; 24
     762:	81 50       	subi	r24, 0x01	; 1
     764:	90 40       	sbci	r25, 0x00	; 0
     766:	20 40       	sbci	r18, 0x00	; 0
     768:	e1 f7       	brne	.-8      	; 0x762 <main+0x2a6>
     76a:	00 c0       	rjmp	.+0      	; 0x76c <main+0x2b0>
     76c:	00 00       	nop
     76e:	60 91 6a 01 	lds	r22, 0x016A	; 0x80016a <smoke>
     772:	70 91 6b 01 	lds	r23, 0x016B	; 0x80016b <smoke+0x1>
     776:	80 91 6c 01 	lds	r24, 0x016C	; 0x80016c <temp>
     77a:	90 91 6d 01 	lds	r25, 0x016D	; 0x80016d <temp+0x1>
     77e:	0e 94 14 02 	call	0x428	; 0x428 <print>
     782:	1e c0       	rjmp	.+60     	; 0x7c0 <main+0x304>
     784:	0e 94 dd 01 	call	0x3ba	; 0x3ba <LCD_Clear>
     788:	6a e0       	ldi	r22, 0x0A	; 10
     78a:	81 e0       	ldi	r24, 0x01	; 1
     78c:	0e 94 d2 01 	call	0x3a4	; 0x3a4 <LCD_GoTo>
     790:	84 eb       	ldi	r24, 0xB4	; 180
     792:	90 e0       	ldi	r25, 0x00	; 0
     794:	0a c0       	rjmp	.+20     	; 0x7aa <main+0x2ee>
     796:	c4 30       	cpi	r28, 0x04	; 4
     798:	b9 f4       	brne	.+46     	; 0x7c8 <main+0x30c>
     79a:	0e 94 dd 01 	call	0x3ba	; 0x3ba <LCD_Clear>
     79e:	6c e0       	ldi	r22, 0x0C	; 12
     7a0:	80 e0       	ldi	r24, 0x00	; 0
     7a2:	0e 94 d2 01 	call	0x3a4	; 0x3a4 <LCD_GoTo>
     7a6:	8f ed       	ldi	r24, 0xDF	; 223
     7a8:	90 e0       	ldi	r25, 0x00	; 0
     7aa:	0e 94 32 01 	call	0x264	; 0x264 <LCD_WriteString>
     7ae:	8f ef       	ldi	r24, 0xFF	; 255
     7b0:	99 e6       	ldi	r25, 0x69	; 105
     7b2:	28 e1       	ldi	r18, 0x18	; 24
     7b4:	81 50       	subi	r24, 0x01	; 1
     7b6:	90 40       	sbci	r25, 0x00	; 0
     7b8:	20 40       	sbci	r18, 0x00	; 0
     7ba:	e1 f7       	brne	.-8      	; 0x7b4 <main+0x2f8>
     7bc:	00 c0       	rjmp	.+0      	; 0x7be <main+0x302>
     7be:	00 00       	nop
     7c0:	d0 e0       	ldi	r29, 0x00	; 0
     7c2:	c0 e0       	ldi	r28, 0x00	; 0
     7c4:	00 e0       	ldi	r16, 0x00	; 0
     7c6:	10 e0       	ldi	r17, 0x00	; 0
     7c8:	0e 94 f0 01 	call	0x3e0	; 0x3e0 <LM35_GetTemp>
     7cc:	90 93 6d 01 	sts	0x016D, r25	; 0x80016d <temp+0x1>
     7d0:	80 93 6c 01 	sts	0x016C, r24	; 0x80016c <temp>
     7d4:	0e 94 00 02 	call	0x400	; 0x400 <Smoke_GetRate>
     7d8:	90 93 6b 01 	sts	0x016B, r25	; 0x80016b <smoke+0x1>
     7dc:	80 93 6a 01 	sts	0x016A, r24	; 0x80016a <smoke>
     7e0:	bc 01       	movw	r22, r24
     7e2:	80 91 6c 01 	lds	r24, 0x016C	; 0x80016c <temp>
     7e6:	90 91 6d 01 	lds	r25, 0x016D	; 0x80016d <temp+0x1>
     7ea:	0e 94 14 02 	call	0x428	; 0x428 <print>
     7ee:	80 91 6a 01 	lds	r24, 0x016A	; 0x80016a <smoke>
     7f2:	90 91 6b 01 	lds	r25, 0x016B	; 0x80016b <smoke+0x1>
     7f6:	84 3f       	cpi	r24, 0xF4	; 244
     7f8:	91 40       	sbci	r25, 0x01	; 1
     7fa:	18 f0       	brcs	.+6      	; 0x802 <__DATA_REGION_LENGTH__+0x2>
     7fc:	d1 30       	cpi	r29, 0x01	; 1
     7fe:	09 f0       	breq	.+2      	; 0x802 <__DATA_REGION_LENGTH__+0x2>
     800:	52 c0       	rjmp	.+164    	; 0x8a6 <__stack+0x47>
     802:	0e 94 e8 01 	call	0x3d0	; 0x3d0 <Stop>
     806:	60 e0       	ldi	r22, 0x00	; 0
     808:	8f e1       	ldi	r24, 0x1F	; 31
     80a:	0e 94 bd 06 	call	0xd7a	; 0xd7a <DIO_WRitePin>
     80e:	d1 11       	cpse	r29, r1
     810:	0b c0       	rjmp	.+22     	; 0x828 <__DATA_REGION_LENGTH__+0x28>
     812:	0e 94 dd 01 	call	0x3ba	; 0x3ba <LCD_Clear>
     816:	6c e0       	ldi	r22, 0x0C	; 12
     818:	80 e0       	ldi	r24, 0x00	; 0
     81a:	0e 94 d2 01 	call	0x3a4	; 0x3a4 <LCD_GoTo>
     81e:	88 ec       	ldi	r24, 0xC8	; 200
     820:	90 e0       	ldi	r25, 0x00	; 0
     822:	0e 94 32 01 	call	0x264	; 0x264 <LCD_WriteString>
     826:	d1 e0       	ldi	r29, 0x01	; 1
     828:	80 91 68 01 	lds	r24, 0x0168	; 0x800168 <__data_end>
     82c:	81 30       	cpi	r24, 0x01	; 1
     82e:	c9 f5       	brne	.+114    	; 0x8a2 <__stack+0x43>
     830:	80 91 6e 01 	lds	r24, 0x016E	; 0x80016e <Password_Adress>
     834:	90 91 6f 01 	lds	r25, 0x016F	; 0x80016f <Password_Adress+0x1>
     838:	0e 94 e7 08 	call	0x11ce	; 0x11ce <EEPROM_ReadPassword_4Number>
     83c:	90 93 71 01 	sts	0x0171, r25	; 0x800171 <password+0x1>
     840:	80 93 70 01 	sts	0x0170, r24	; 0x800170 <password>
     844:	10 92 68 01 	sts	0x0168, r1	; 0x800168 <__data_end>
     848:	2c c0       	rjmp	.+88     	; 0x8a2 <__stack+0x43>
     84a:	0e 94 89 00 	call	0x112	; 0x112 <KEYPAD_GetKey>
     84e:	e8 2e       	mov	r14, r24
     850:	80 ed       	ldi	r24, 0xD0	; 208
     852:	8e 0d       	add	r24, r14
     854:	8a 30       	cpi	r24, 0x0A	; 10
     856:	28 f5       	brcc	.+74     	; 0x8a2 <__stack+0x43>
     858:	c0 9e       	mul	r12, r16
     85a:	c0 01       	movw	r24, r0
     85c:	c1 9e       	mul	r12, r17
     85e:	90 0d       	add	r25, r0
     860:	11 24       	eor	r1, r1
     862:	8c 01       	movw	r16, r24
     864:	00 53       	subi	r16, 0x30	; 48
     866:	11 09       	sbc	r17, r1
     868:	0e 0d       	add	r16, r14
     86a:	11 1d       	adc	r17, r1
     86c:	8d e0       	ldi	r24, 0x0D	; 13
     86e:	d8 2e       	mov	r13, r24
     870:	dc 0e       	add	r13, r28
     872:	6d 2d       	mov	r22, r13
     874:	81 e0       	ldi	r24, 0x01	; 1
     876:	0e 94 d2 01 	call	0x3a4	; 0x3a4 <LCD_GoTo>
     87a:	8e 2d       	mov	r24, r14
     87c:	0e 94 30 01 	call	0x260	; 0x260 <LCD_WriteChar>
     880:	8f ef       	ldi	r24, 0xFF	; 255
     882:	92 e5       	ldi	r25, 0x52	; 82
     884:	27 e0       	ldi	r18, 0x07	; 7
     886:	81 50       	subi	r24, 0x01	; 1
     888:	90 40       	sbci	r25, 0x00	; 0
     88a:	20 40       	sbci	r18, 0x00	; 0
     88c:	e1 f7       	brne	.-8      	; 0x886 <__stack+0x27>
     88e:	00 c0       	rjmp	.+0      	; 0x890 <__stack+0x31>
     890:	00 00       	nop
     892:	6d 2d       	mov	r22, r13
     894:	81 e0       	ldi	r24, 0x01	; 1
     896:	0e 94 d2 01 	call	0x3a4	; 0x3a4 <LCD_GoTo>
     89a:	8a e2       	ldi	r24, 0x2A	; 42
     89c:	0e 94 30 01 	call	0x260	; 0x260 <LCD_WriteChar>
     8a0:	cf 5f       	subi	r28, 0xFF	; 255
     8a2:	c4 30       	cpi	r28, 0x04	; 4
     8a4:	90 f2       	brcs	.-92     	; 0x84a <__DATA_REGION_LENGTH__+0x4a>
     8a6:	80 91 70 01 	lds	r24, 0x0170	; 0x800170 <password>
     8aa:	90 91 71 01 	lds	r25, 0x0171	; 0x800171 <password+0x1>
     8ae:	08 17       	cp	r16, r24
     8b0:	19 07       	cpc	r17, r25
     8b2:	09 f0       	breq	.+2      	; 0x8b6 <__stack+0x57>
     8b4:	70 cf       	rjmp	.-288    	; 0x796 <main+0x2da>
     8b6:	0e 94 dd 01 	call	0x3ba	; 0x3ba <LCD_Clear>
     8ba:	78 94       	sei
     8bc:	61 e0       	ldi	r22, 0x01	; 1
     8be:	80 91 62 00 	lds	r24, 0x0062	; 0x800062 <Enter_Password_Flag_Adress>
     8c2:	90 91 63 00 	lds	r25, 0x0063	; 0x800063 <Enter_Password_Flag_Adress+0x1>
     8c6:	0e 94 8b 07 	call	0xf16	; 0xf16 <EEPROM_Write>
     8ca:	81 e0       	ldi	r24, 0x01	; 1
     8cc:	80 93 69 01 	sts	0x0169, r24	; 0x800169 <Enter_Password_Flag>
     8d0:	af ce       	rjmp	.-674    	; 0x630 <main+0x174>

000008d2 <Change_Password>:
     8d2:	df 92       	push	r13
     8d4:	ef 92       	push	r14
     8d6:	ff 92       	push	r15
     8d8:	0f 93       	push	r16
     8da:	1f 93       	push	r17
     8dc:	cf 93       	push	r28
     8de:	df 93       	push	r29
     8e0:	0e 94 dd 01 	call	0x3ba	; 0x3ba <LCD_Clear>
     8e4:	65 e0       	ldi	r22, 0x05	; 5
     8e6:	80 e0       	ldi	r24, 0x00	; 0
     8e8:	0e 94 d2 01 	call	0x3a4	; 0x3a4 <LCD_GoTo>
     8ec:	8e ee       	ldi	r24, 0xEE	; 238
     8ee:	90 e0       	ldi	r25, 0x00	; 0
     8f0:	0e 94 32 01 	call	0x264	; 0x264 <LCD_WriteString>
     8f4:	60 e0       	ldi	r22, 0x00	; 0
     8f6:	81 e0       	ldi	r24, 0x01	; 1
     8f8:	0e 94 d2 01 	call	0x3a4	; 0x3a4 <LCD_GoTo>
     8fc:	63 e0       	ldi	r22, 0x03	; 3
     8fe:	70 e0       	ldi	r23, 0x00	; 0
     900:	80 e0       	ldi	r24, 0x00	; 0
     902:	90 e0       	ldi	r25, 0x00	; 0
     904:	0e 94 61 01 	call	0x2c2	; 0x2c2 <LCD_WriteNumber>
     908:	d3 e0       	ldi	r29, 0x03	; 3
     90a:	3a e0       	ldi	r19, 0x0A	; 10
     90c:	d3 2e       	mov	r13, r19
     90e:	00 e0       	ldi	r16, 0x00	; 0
     910:	10 e0       	ldi	r17, 0x00	; 0
     912:	c0 e0       	ldi	r28, 0x00	; 0
     914:	0e 94 89 00 	call	0x112	; 0x112 <KEYPAD_GetKey>
     918:	f8 2e       	mov	r15, r24
     91a:	80 ed       	ldi	r24, 0xD0	; 208
     91c:	8f 0d       	add	r24, r15
     91e:	8a 30       	cpi	r24, 0x0A	; 10
     920:	28 f5       	brcc	.+74     	; 0x96c <Change_Password+0x9a>
     922:	20 e1       	ldi	r18, 0x10	; 16
     924:	e2 2e       	mov	r14, r18
     926:	ec 0e       	add	r14, r28
     928:	6e 2d       	mov	r22, r14
     92a:	81 e0       	ldi	r24, 0x01	; 1
     92c:	0e 94 d2 01 	call	0x3a4	; 0x3a4 <LCD_GoTo>
     930:	8f 2d       	mov	r24, r15
     932:	0e 94 30 01 	call	0x260	; 0x260 <LCD_WriteChar>
     936:	2f ef       	ldi	r18, 0xFF	; 255
     938:	82 e5       	ldi	r24, 0x52	; 82
     93a:	97 e0       	ldi	r25, 0x07	; 7
     93c:	21 50       	subi	r18, 0x01	; 1
     93e:	80 40       	sbci	r24, 0x00	; 0
     940:	90 40       	sbci	r25, 0x00	; 0
     942:	e1 f7       	brne	.-8      	; 0x93c <Change_Password+0x6a>
     944:	00 c0       	rjmp	.+0      	; 0x946 <Change_Password+0x74>
     946:	00 00       	nop
     948:	6e 2d       	mov	r22, r14
     94a:	81 e0       	ldi	r24, 0x01	; 1
     94c:	0e 94 d2 01 	call	0x3a4	; 0x3a4 <LCD_GoTo>
     950:	8a e2       	ldi	r24, 0x2A	; 42
     952:	0e 94 30 01 	call	0x260	; 0x260 <LCD_WriteChar>
     956:	d0 9e       	mul	r13, r16
     958:	c0 01       	movw	r24, r0
     95a:	d1 9e       	mul	r13, r17
     95c:	90 0d       	add	r25, r0
     95e:	11 24       	eor	r1, r1
     960:	8c 01       	movw	r16, r24
     962:	0f 0d       	add	r16, r15
     964:	11 1d       	adc	r17, r1
     966:	00 53       	subi	r16, 0x30	; 48
     968:	11 09       	sbc	r17, r1
     96a:	cf 5f       	subi	r28, 0xFF	; 255
     96c:	c4 30       	cpi	r28, 0x04	; 4
     96e:	90 f2       	brcs	.-92     	; 0x914 <Change_Password+0x42>
     970:	80 91 70 01 	lds	r24, 0x0170	; 0x800170 <password>
     974:	90 91 71 01 	lds	r25, 0x0171	; 0x800171 <password+0x1>
     978:	08 17       	cp	r16, r24
     97a:	19 07       	cpc	r17, r25
     97c:	09 f4       	brne	.+2      	; 0x980 <Change_Password+0xae>
     97e:	60 c0       	rjmp	.+192    	; 0xa40 <Change_Password+0x16e>
     980:	0e 94 dd 01 	call	0x3ba	; 0x3ba <LCD_Clear>
     984:	2f ef       	ldi	r18, 0xFF	; 255
     986:	84 e3       	ldi	r24, 0x34	; 52
     988:	9c e0       	ldi	r25, 0x0C	; 12
     98a:	21 50       	subi	r18, 0x01	; 1
     98c:	80 40       	sbci	r24, 0x00	; 0
     98e:	90 40       	sbci	r25, 0x00	; 0
     990:	e1 f7       	brne	.-8      	; 0x98a <Change_Password+0xb8>
     992:	00 c0       	rjmp	.+0      	; 0x994 <Change_Password+0xc2>
     994:	00 00       	nop
     996:	6c e0       	ldi	r22, 0x0C	; 12
     998:	80 e0       	ldi	r24, 0x00	; 0
     99a:	0e 94 d2 01 	call	0x3a4	; 0x3a4 <LCD_GoTo>
     99e:	8f ed       	ldi	r24, 0xDF	; 223
     9a0:	90 e0       	ldi	r25, 0x00	; 0
     9a2:	0e 94 32 01 	call	0x264	; 0x264 <LCD_WriteString>
     9a6:	2f ef       	ldi	r18, 0xFF	; 255
     9a8:	89 e6       	ldi	r24, 0x69	; 105
     9aa:	98 e1       	ldi	r25, 0x18	; 24
     9ac:	21 50       	subi	r18, 0x01	; 1
     9ae:	80 40       	sbci	r24, 0x00	; 0
     9b0:	90 40       	sbci	r25, 0x00	; 0
     9b2:	e1 f7       	brne	.-8      	; 0x9ac <Change_Password+0xda>
     9b4:	00 c0       	rjmp	.+0      	; 0x9b6 <Change_Password+0xe4>
     9b6:	00 00       	nop
     9b8:	65 e0       	ldi	r22, 0x05	; 5
     9ba:	80 e0       	ldi	r24, 0x00	; 0
     9bc:	0e 94 d2 01 	call	0x3a4	; 0x3a4 <LCD_GoTo>
     9c0:	8e ee       	ldi	r24, 0xEE	; 238
     9c2:	90 e0       	ldi	r25, 0x00	; 0
     9c4:	0e 94 32 01 	call	0x264	; 0x264 <LCD_WriteString>
     9c8:	60 e0       	ldi	r22, 0x00	; 0
     9ca:	81 e0       	ldi	r24, 0x01	; 1
     9cc:	0e 94 d2 01 	call	0x3a4	; 0x3a4 <LCD_GoTo>
     9d0:	d1 50       	subi	r29, 0x01	; 1
     9d2:	6d 2f       	mov	r22, r29
     9d4:	70 e0       	ldi	r23, 0x00	; 0
     9d6:	80 e0       	ldi	r24, 0x00	; 0
     9d8:	90 e0       	ldi	r25, 0x00	; 0
     9da:	0e 94 61 01 	call	0x2c2	; 0x2c2 <LCD_WriteNumber>
     9de:	d1 11       	cpse	r29, r1
     9e0:	96 cf       	rjmp	.-212    	; 0x90e <Change_Password+0x3c>
     9e2:	0e 94 dd 01 	call	0x3ba	; 0x3ba <LCD_Clear>
     9e6:	2f ef       	ldi	r18, 0xFF	; 255
     9e8:	84 e3       	ldi	r24, 0x34	; 52
     9ea:	9c e0       	ldi	r25, 0x0C	; 12
     9ec:	21 50       	subi	r18, 0x01	; 1
     9ee:	80 40       	sbci	r24, 0x00	; 0
     9f0:	90 40       	sbci	r25, 0x00	; 0
     9f2:	e1 f7       	brne	.-8      	; 0x9ec <Change_Password+0x11a>
     9f4:	00 c0       	rjmp	.+0      	; 0x9f6 <Change_Password+0x124>
     9f6:	00 00       	nop
     9f8:	65 e0       	ldi	r22, 0x05	; 5
     9fa:	80 e0       	ldi	r24, 0x00	; 0
     9fc:	0e 94 d2 01 	call	0x3a4	; 0x3a4 <LCD_GoTo>
     a00:	8c e0       	ldi	r24, 0x0C	; 12
     a02:	91 e0       	ldi	r25, 0x01	; 1
     a04:	0e 94 32 01 	call	0x264	; 0x264 <LCD_WriteString>
     a08:	2f ef       	ldi	r18, 0xFF	; 255
     a0a:	89 e6       	ldi	r24, 0x69	; 105
     a0c:	98 e1       	ldi	r25, 0x18	; 24
     a0e:	21 50       	subi	r18, 0x01	; 1
     a10:	80 40       	sbci	r24, 0x00	; 0
     a12:	90 40       	sbci	r25, 0x00	; 0
     a14:	e1 f7       	brne	.-8      	; 0xa0e <Change_Password+0x13c>
     a16:	00 c0       	rjmp	.+0      	; 0xa18 <Change_Password+0x146>
     a18:	00 00       	nop
     a1a:	0e 94 dd 01 	call	0x3ba	; 0x3ba <LCD_Clear>
     a1e:	60 91 6a 01 	lds	r22, 0x016A	; 0x80016a <smoke>
     a22:	70 91 6b 01 	lds	r23, 0x016B	; 0x80016b <smoke+0x1>
     a26:	80 91 6c 01 	lds	r24, 0x016C	; 0x80016c <temp>
     a2a:	90 91 6d 01 	lds	r25, 0x016D	; 0x80016d <temp+0x1>
     a2e:	df 91       	pop	r29
     a30:	cf 91       	pop	r28
     a32:	1f 91       	pop	r17
     a34:	0f 91       	pop	r16
     a36:	ff 90       	pop	r15
     a38:	ef 90       	pop	r14
     a3a:	df 90       	pop	r13
     a3c:	0c 94 14 02 	jmp	0x428	; 0x428 <print>
     a40:	0e 94 dd 01 	call	0x3ba	; 0x3ba <LCD_Clear>
     a44:	65 e0       	ldi	r22, 0x05	; 5
     a46:	80 e0       	ldi	r24, 0x00	; 0
     a48:	0e 94 d2 01 	call	0x3a4	; 0x3a4 <LCD_GoTo>
     a4c:	8a e2       	ldi	r24, 0x2A	; 42
     a4e:	91 e0       	ldi	r25, 0x01	; 1
     a50:	0e 94 32 01 	call	0x264	; 0x264 <LCD_WriteString>
     a54:	2f ef       	ldi	r18, 0xFF	; 255
     a56:	84 e3       	ldi	r24, 0x34	; 52
     a58:	9c e0       	ldi	r25, 0x0C	; 12
     a5a:	21 50       	subi	r18, 0x01	; 1
     a5c:	80 40       	sbci	r24, 0x00	; 0
     a5e:	90 40       	sbci	r25, 0x00	; 0
     a60:	e1 f7       	brne	.-8      	; 0xa5a <Change_Password+0x188>
     a62:	00 c0       	rjmp	.+0      	; 0xa64 <Change_Password+0x192>
     a64:	00 00       	nop
     a66:	81 e0       	ldi	r24, 0x01	; 1
     a68:	80 93 68 01 	sts	0x0168, r24	; 0x800168 <__data_end>
     a6c:	61 e0       	ldi	r22, 0x01	; 1
     a6e:	80 91 64 00 	lds	r24, 0x0064	; 0x800064 <Ubdate_passwordAdress>
     a72:	90 91 65 00 	lds	r25, 0x0065	; 0x800065 <Ubdate_passwordAdress+0x1>
     a76:	0e 94 8b 07 	call	0xf16	; 0xf16 <EEPROM_Write>
     a7a:	00 e0       	ldi	r16, 0x00	; 0
     a7c:	10 e0       	ldi	r17, 0x00	; 0
     a7e:	c0 e0       	ldi	r28, 0x00	; 0
     a80:	8a e0       	ldi	r24, 0x0A	; 10
     a82:	e8 2e       	mov	r14, r24
     a84:	0e 94 89 00 	call	0x112	; 0x112 <KEYPAD_GetKey>
     a88:	d8 2f       	mov	r29, r24
     a8a:	80 ed       	ldi	r24, 0xD0	; 208
     a8c:	8d 0f       	add	r24, r29
     a8e:	8a 30       	cpi	r24, 0x0A	; 10
     a90:	28 f5       	brcc	.+74     	; 0xadc <Change_Password+0x20a>
     a92:	90 e1       	ldi	r25, 0x10	; 16
     a94:	f9 2e       	mov	r15, r25
     a96:	fc 0e       	add	r15, r28
     a98:	6f 2d       	mov	r22, r15
     a9a:	81 e0       	ldi	r24, 0x01	; 1
     a9c:	0e 94 d2 01 	call	0x3a4	; 0x3a4 <LCD_GoTo>
     aa0:	8d 2f       	mov	r24, r29
     aa2:	0e 94 30 01 	call	0x260	; 0x260 <LCD_WriteChar>
     aa6:	2f ef       	ldi	r18, 0xFF	; 255
     aa8:	82 e5       	ldi	r24, 0x52	; 82
     aaa:	97 e0       	ldi	r25, 0x07	; 7
     aac:	21 50       	subi	r18, 0x01	; 1
     aae:	80 40       	sbci	r24, 0x00	; 0
     ab0:	90 40       	sbci	r25, 0x00	; 0
     ab2:	e1 f7       	brne	.-8      	; 0xaac <Change_Password+0x1da>
     ab4:	00 c0       	rjmp	.+0      	; 0xab6 <Change_Password+0x1e4>
     ab6:	00 00       	nop
     ab8:	6f 2d       	mov	r22, r15
     aba:	81 e0       	ldi	r24, 0x01	; 1
     abc:	0e 94 d2 01 	call	0x3a4	; 0x3a4 <LCD_GoTo>
     ac0:	8a e2       	ldi	r24, 0x2A	; 42
     ac2:	0e 94 30 01 	call	0x260	; 0x260 <LCD_WriteChar>
     ac6:	e0 9e       	mul	r14, r16
     ac8:	c0 01       	movw	r24, r0
     aca:	e1 9e       	mul	r14, r17
     acc:	90 0d       	add	r25, r0
     ace:	11 24       	eor	r1, r1
     ad0:	8c 01       	movw	r16, r24
     ad2:	0d 0f       	add	r16, r29
     ad4:	11 1d       	adc	r17, r1
     ad6:	00 53       	subi	r16, 0x30	; 48
     ad8:	11 09       	sbc	r17, r1
     ada:	cf 5f       	subi	r28, 0xFF	; 255
     adc:	c4 30       	cpi	r28, 0x04	; 4
     ade:	90 f2       	brcs	.-92     	; 0xa84 <Change_Password+0x1b2>
     ae0:	b8 01       	movw	r22, r16
     ae2:	80 91 6e 01 	lds	r24, 0x016E	; 0x80016e <Password_Adress>
     ae6:	90 91 6f 01 	lds	r25, 0x016F	; 0x80016f <Password_Adress+0x1>
     aea:	0e 94 c2 08 	call	0x1184	; 0x1184 <EEPROM_WritePassword_4Number>
     aee:	95 cf       	rjmp	.-214    	; 0xa1a <Change_Password+0x148>

00000af0 <ADC_init>:
     af0:	81 30       	cpi	r24, 0x01	; 1
     af2:	41 f0       	breq	.+16     	; 0xb04 <ADC_init+0x14>
     af4:	28 f0       	brcs	.+10     	; 0xb00 <ADC_init+0x10>
     af6:	82 30       	cpi	r24, 0x02	; 2
     af8:	39 f4       	brne	.+14     	; 0xb08 <ADC_init+0x18>
     afa:	3e 9a       	sbi	0x07, 6	; 7
     afc:	3f 9a       	sbi	0x07, 7	; 7
     afe:	04 c0       	rjmp	.+8      	; 0xb08 <ADC_init+0x18>
     b00:	3e 98       	cbi	0x07, 6	; 7
     b02:	01 c0       	rjmp	.+2      	; 0xb06 <ADC_init+0x16>
     b04:	3e 9a       	sbi	0x07, 6	; 7
     b06:	3f 98       	cbi	0x07, 7	; 7
     b08:	86 b1       	in	r24, 0x06	; 6
     b0a:	88 7f       	andi	r24, 0xF8	; 248
     b0c:	86 b9       	out	0x06, r24	; 6
     b0e:	86 b1       	in	r24, 0x06	; 6
     b10:	67 70       	andi	r22, 0x07	; 7
     b12:	68 2b       	or	r22, r24
     b14:	66 b9       	out	0x06, r22	; 6
     b16:	3d 98       	cbi	0x07, 5	; 7
     b18:	37 9a       	sbi	0x06, 7	; 6
     b1a:	08 95       	ret

00000b1c <ADC_Read>:
     b1c:	97 b1       	in	r25, 0x07	; 7
     b1e:	90 7e       	andi	r25, 0xE0	; 224
     b20:	97 b9       	out	0x07, r25	; 7
     b22:	97 b1       	in	r25, 0x07	; 7
     b24:	89 2b       	or	r24, r25
     b26:	87 b9       	out	0x07, r24	; 7
     b28:	36 9a       	sbi	0x06, 6	; 6
     b2a:	2f ef       	ldi	r18, 0xFF	; 255
     b2c:	80 e7       	ldi	r24, 0x70	; 112
     b2e:	92 e0       	ldi	r25, 0x02	; 2
     b30:	21 50       	subi	r18, 0x01	; 1
     b32:	80 40       	sbci	r24, 0x00	; 0
     b34:	90 40       	sbci	r25, 0x00	; 0
     b36:	e1 f7       	brne	.-8      	; 0xb30 <ADC_Read+0x14>
     b38:	00 c0       	rjmp	.+0      	; 0xb3a <ADC_Read+0x1e>
     b3a:	00 00       	nop
     b3c:	84 b1       	in	r24, 0x04	; 4
     b3e:	95 b1       	in	r25, 0x05	; 5
     b40:	08 95       	ret

00000b42 <DIO_InitPin>:
     b42:	61 30       	cpi	r22, 0x01	; 1
     b44:	09 f4       	brne	.+2      	; 0xb48 <DIO_InitPin+0x6>
     b46:	57 c0       	rjmp	.+174    	; 0xbf6 <DIO_InitPin+0xb4>
     b48:	20 f0       	brcs	.+8      	; 0xb52 <DIO_InitPin+0x10>
     b4a:	62 30       	cpi	r22, 0x02	; 2
     b4c:	09 f4       	brne	.+2      	; 0xb50 <DIO_InitPin+0xe>
     b4e:	ab c0       	rjmp	.+342    	; 0xca6 <DIO_InitPin+0x164>
     b50:	08 95       	ret
     b52:	88 30       	cpi	r24, 0x08	; 8
     b54:	80 f4       	brcc	.+32     	; 0xb76 <DIO_InitPin+0x34>
     b56:	4a b3       	in	r20, 0x1a	; 26
     b58:	21 e0       	ldi	r18, 0x01	; 1
     b5a:	30 e0       	ldi	r19, 0x00	; 0
     b5c:	b9 01       	movw	r22, r18
     b5e:	02 c0       	rjmp	.+4      	; 0xb64 <DIO_InitPin+0x22>
     b60:	66 0f       	add	r22, r22
     b62:	77 1f       	adc	r23, r23
     b64:	8a 95       	dec	r24
     b66:	e2 f7       	brpl	.-8      	; 0xb60 <DIO_InitPin+0x1e>
     b68:	cb 01       	movw	r24, r22
     b6a:	94 2f       	mov	r25, r20
     b6c:	98 2b       	or	r25, r24
     b6e:	9a bb       	out	0x1a, r25	; 26
     b70:	9b b3       	in	r25, 0x1b	; 27
     b72:	80 95       	com	r24
     b74:	51 c0       	rjmp	.+162    	; 0xc18 <DIO_InitPin+0xd6>
     b76:	98 ef       	ldi	r25, 0xF8	; 248
     b78:	98 0f       	add	r25, r24
     b7a:	98 30       	cpi	r25, 0x08	; 8
     b7c:	88 f4       	brcc	.+34     	; 0xba0 <DIO_InitPin+0x5e>
     b7e:	47 b3       	in	r20, 0x17	; 23
     b80:	87 70       	andi	r24, 0x07	; 7
     b82:	21 e0       	ldi	r18, 0x01	; 1
     b84:	30 e0       	ldi	r19, 0x00	; 0
     b86:	b9 01       	movw	r22, r18
     b88:	02 c0       	rjmp	.+4      	; 0xb8e <DIO_InitPin+0x4c>
     b8a:	66 0f       	add	r22, r22
     b8c:	77 1f       	adc	r23, r23
     b8e:	8a 95       	dec	r24
     b90:	e2 f7       	brpl	.-8      	; 0xb8a <DIO_InitPin+0x48>
     b92:	cb 01       	movw	r24, r22
     b94:	94 2f       	mov	r25, r20
     b96:	98 2b       	or	r25, r24
     b98:	97 bb       	out	0x17, r25	; 23
     b9a:	98 b3       	in	r25, 0x18	; 24
     b9c:	80 95       	com	r24
     b9e:	53 c0       	rjmp	.+166    	; 0xc46 <DIO_InitPin+0x104>
     ba0:	90 ef       	ldi	r25, 0xF0	; 240
     ba2:	98 0f       	add	r25, r24
     ba4:	98 30       	cpi	r25, 0x08	; 8
     ba6:	88 f4       	brcc	.+34     	; 0xbca <DIO_InitPin+0x88>
     ba8:	44 b3       	in	r20, 0x14	; 20
     baa:	87 70       	andi	r24, 0x07	; 7
     bac:	21 e0       	ldi	r18, 0x01	; 1
     bae:	30 e0       	ldi	r19, 0x00	; 0
     bb0:	b9 01       	movw	r22, r18
     bb2:	02 c0       	rjmp	.+4      	; 0xbb8 <DIO_InitPin+0x76>
     bb4:	66 0f       	add	r22, r22
     bb6:	77 1f       	adc	r23, r23
     bb8:	8a 95       	dec	r24
     bba:	e2 f7       	brpl	.-8      	; 0xbb4 <DIO_InitPin+0x72>
     bbc:	cb 01       	movw	r24, r22
     bbe:	94 2f       	mov	r25, r20
     bc0:	98 2b       	or	r25, r24
     bc2:	94 bb       	out	0x14, r25	; 20
     bc4:	95 b3       	in	r25, 0x15	; 21
     bc6:	80 95       	com	r24
     bc8:	55 c0       	rjmp	.+170    	; 0xc74 <DIO_InitPin+0x132>
     bca:	98 ee       	ldi	r25, 0xE8	; 232
     bcc:	98 0f       	add	r25, r24
     bce:	98 30       	cpi	r25, 0x08	; 8
     bd0:	08 f0       	brcs	.+2      	; 0xbd4 <DIO_InitPin+0x92>
     bd2:	bf c0       	rjmp	.+382    	; 0xd52 <DIO_InitPin+0x210>
     bd4:	41 b3       	in	r20, 0x11	; 17
     bd6:	87 70       	andi	r24, 0x07	; 7
     bd8:	21 e0       	ldi	r18, 0x01	; 1
     bda:	30 e0       	ldi	r19, 0x00	; 0
     bdc:	b9 01       	movw	r22, r18
     bde:	02 c0       	rjmp	.+4      	; 0xbe4 <DIO_InitPin+0xa2>
     be0:	66 0f       	add	r22, r22
     be2:	77 1f       	adc	r23, r23
     be4:	8a 95       	dec	r24
     be6:	e2 f7       	brpl	.-8      	; 0xbe0 <DIO_InitPin+0x9e>
     be8:	cb 01       	movw	r24, r22
     bea:	94 2f       	mov	r25, r20
     bec:	98 2b       	or	r25, r24
     bee:	91 bb       	out	0x11, r25	; 17
     bf0:	92 b3       	in	r25, 0x12	; 18
     bf2:	80 95       	com	r24
     bf4:	56 c0       	rjmp	.+172    	; 0xca2 <DIO_InitPin+0x160>
     bf6:	88 30       	cpi	r24, 0x08	; 8
     bf8:	90 f4       	brcc	.+36     	; 0xc1e <DIO_InitPin+0xdc>
     bfa:	4a b3       	in	r20, 0x1a	; 26
     bfc:	21 e0       	ldi	r18, 0x01	; 1
     bfe:	30 e0       	ldi	r19, 0x00	; 0
     c00:	b9 01       	movw	r22, r18
     c02:	02 c0       	rjmp	.+4      	; 0xc08 <DIO_InitPin+0xc6>
     c04:	66 0f       	add	r22, r22
     c06:	77 1f       	adc	r23, r23
     c08:	8a 95       	dec	r24
     c0a:	e2 f7       	brpl	.-8      	; 0xc04 <DIO_InitPin+0xc2>
     c0c:	cb 01       	movw	r24, r22
     c0e:	80 95       	com	r24
     c10:	94 2f       	mov	r25, r20
     c12:	98 23       	and	r25, r24
     c14:	9a bb       	out	0x1a, r25	; 26
     c16:	9b b3       	in	r25, 0x1b	; 27
     c18:	89 23       	and	r24, r25
     c1a:	8b bb       	out	0x1b, r24	; 27
     c1c:	08 95       	ret
     c1e:	98 ef       	ldi	r25, 0xF8	; 248
     c20:	98 0f       	add	r25, r24
     c22:	98 30       	cpi	r25, 0x08	; 8
     c24:	98 f4       	brcc	.+38     	; 0xc4c <DIO_InitPin+0x10a>
     c26:	47 b3       	in	r20, 0x17	; 23
     c28:	87 70       	andi	r24, 0x07	; 7
     c2a:	21 e0       	ldi	r18, 0x01	; 1
     c2c:	30 e0       	ldi	r19, 0x00	; 0
     c2e:	b9 01       	movw	r22, r18
     c30:	02 c0       	rjmp	.+4      	; 0xc36 <DIO_InitPin+0xf4>
     c32:	66 0f       	add	r22, r22
     c34:	77 1f       	adc	r23, r23
     c36:	8a 95       	dec	r24
     c38:	e2 f7       	brpl	.-8      	; 0xc32 <DIO_InitPin+0xf0>
     c3a:	cb 01       	movw	r24, r22
     c3c:	80 95       	com	r24
     c3e:	94 2f       	mov	r25, r20
     c40:	98 23       	and	r25, r24
     c42:	97 bb       	out	0x17, r25	; 23
     c44:	98 b3       	in	r25, 0x18	; 24
     c46:	89 23       	and	r24, r25
     c48:	88 bb       	out	0x18, r24	; 24
     c4a:	08 95       	ret
     c4c:	90 ef       	ldi	r25, 0xF0	; 240
     c4e:	98 0f       	add	r25, r24
     c50:	98 30       	cpi	r25, 0x08	; 8
     c52:	90 f4       	brcc	.+36     	; 0xc78 <DIO_InitPin+0x136>
     c54:	44 b3       	in	r20, 0x14	; 20
     c56:	87 70       	andi	r24, 0x07	; 7
     c58:	21 e0       	ldi	r18, 0x01	; 1
     c5a:	30 e0       	ldi	r19, 0x00	; 0
     c5c:	b9 01       	movw	r22, r18
     c5e:	02 c0       	rjmp	.+4      	; 0xc64 <DIO_InitPin+0x122>
     c60:	66 0f       	add	r22, r22
     c62:	77 1f       	adc	r23, r23
     c64:	8a 95       	dec	r24
     c66:	e2 f7       	brpl	.-8      	; 0xc60 <DIO_InitPin+0x11e>
     c68:	cb 01       	movw	r24, r22
     c6a:	80 95       	com	r24
     c6c:	94 2f       	mov	r25, r20
     c6e:	98 23       	and	r25, r24
     c70:	94 bb       	out	0x14, r25	; 20
     c72:	95 b3       	in	r25, 0x15	; 21
     c74:	89 23       	and	r24, r25
     c76:	55 c0       	rjmp	.+170    	; 0xd22 <DIO_InitPin+0x1e0>
     c78:	98 ee       	ldi	r25, 0xE8	; 232
     c7a:	98 0f       	add	r25, r24
     c7c:	98 30       	cpi	r25, 0x08	; 8
     c7e:	08 f0       	brcs	.+2      	; 0xc82 <DIO_InitPin+0x140>
     c80:	68 c0       	rjmp	.+208    	; 0xd52 <DIO_InitPin+0x210>
     c82:	41 b3       	in	r20, 0x11	; 17
     c84:	87 70       	andi	r24, 0x07	; 7
     c86:	21 e0       	ldi	r18, 0x01	; 1
     c88:	30 e0       	ldi	r19, 0x00	; 0
     c8a:	b9 01       	movw	r22, r18
     c8c:	02 c0       	rjmp	.+4      	; 0xc92 <DIO_InitPin+0x150>
     c8e:	66 0f       	add	r22, r22
     c90:	77 1f       	adc	r23, r23
     c92:	8a 95       	dec	r24
     c94:	e2 f7       	brpl	.-8      	; 0xc8e <DIO_InitPin+0x14c>
     c96:	cb 01       	movw	r24, r22
     c98:	80 95       	com	r24
     c9a:	94 2f       	mov	r25, r20
     c9c:	98 23       	and	r25, r24
     c9e:	91 bb       	out	0x11, r25	; 17
     ca0:	92 b3       	in	r25, 0x12	; 18
     ca2:	89 23       	and	r24, r25
     ca4:	55 c0       	rjmp	.+170    	; 0xd50 <DIO_InitPin+0x20e>
     ca6:	88 30       	cpi	r24, 0x08	; 8
     ca8:	88 f4       	brcc	.+34     	; 0xccc <DIO_InitPin+0x18a>
     caa:	4a b3       	in	r20, 0x1a	; 26
     cac:	21 e0       	ldi	r18, 0x01	; 1
     cae:	30 e0       	ldi	r19, 0x00	; 0
     cb0:	b9 01       	movw	r22, r18
     cb2:	02 c0       	rjmp	.+4      	; 0xcb8 <DIO_InitPin+0x176>
     cb4:	66 0f       	add	r22, r22
     cb6:	77 1f       	adc	r23, r23
     cb8:	8a 95       	dec	r24
     cba:	e2 f7       	brpl	.-8      	; 0xcb4 <DIO_InitPin+0x172>
     cbc:	cb 01       	movw	r24, r22
     cbe:	96 2f       	mov	r25, r22
     cc0:	90 95       	com	r25
     cc2:	94 23       	and	r25, r20
     cc4:	9a bb       	out	0x1a, r25	; 26
     cc6:	9b b3       	in	r25, 0x1b	; 27
     cc8:	89 2b       	or	r24, r25
     cca:	a7 cf       	rjmp	.-178    	; 0xc1a <DIO_InitPin+0xd8>
     ccc:	98 ef       	ldi	r25, 0xF8	; 248
     cce:	98 0f       	add	r25, r24
     cd0:	98 30       	cpi	r25, 0x08	; 8
     cd2:	90 f4       	brcc	.+36     	; 0xcf8 <DIO_InitPin+0x1b6>
     cd4:	47 b3       	in	r20, 0x17	; 23
     cd6:	87 70       	andi	r24, 0x07	; 7
     cd8:	21 e0       	ldi	r18, 0x01	; 1
     cda:	30 e0       	ldi	r19, 0x00	; 0
     cdc:	b9 01       	movw	r22, r18
     cde:	02 c0       	rjmp	.+4      	; 0xce4 <DIO_InitPin+0x1a2>
     ce0:	66 0f       	add	r22, r22
     ce2:	77 1f       	adc	r23, r23
     ce4:	8a 95       	dec	r24
     ce6:	e2 f7       	brpl	.-8      	; 0xce0 <DIO_InitPin+0x19e>
     ce8:	cb 01       	movw	r24, r22
     cea:	96 2f       	mov	r25, r22
     cec:	90 95       	com	r25
     cee:	94 23       	and	r25, r20
     cf0:	97 bb       	out	0x17, r25	; 23
     cf2:	98 b3       	in	r25, 0x18	; 24
     cf4:	89 2b       	or	r24, r25
     cf6:	a8 cf       	rjmp	.-176    	; 0xc48 <DIO_InitPin+0x106>
     cf8:	90 ef       	ldi	r25, 0xF0	; 240
     cfa:	98 0f       	add	r25, r24
     cfc:	98 30       	cpi	r25, 0x08	; 8
     cfe:	98 f4       	brcc	.+38     	; 0xd26 <DIO_InitPin+0x1e4>
     d00:	44 b3       	in	r20, 0x14	; 20
     d02:	87 70       	andi	r24, 0x07	; 7
     d04:	21 e0       	ldi	r18, 0x01	; 1
     d06:	30 e0       	ldi	r19, 0x00	; 0
     d08:	b9 01       	movw	r22, r18
     d0a:	02 c0       	rjmp	.+4      	; 0xd10 <DIO_InitPin+0x1ce>
     d0c:	66 0f       	add	r22, r22
     d0e:	77 1f       	adc	r23, r23
     d10:	8a 95       	dec	r24
     d12:	e2 f7       	brpl	.-8      	; 0xd0c <DIO_InitPin+0x1ca>
     d14:	cb 01       	movw	r24, r22
     d16:	96 2f       	mov	r25, r22
     d18:	90 95       	com	r25
     d1a:	94 23       	and	r25, r20
     d1c:	94 bb       	out	0x14, r25	; 20
     d1e:	95 b3       	in	r25, 0x15	; 21
     d20:	89 2b       	or	r24, r25
     d22:	85 bb       	out	0x15, r24	; 21
     d24:	08 95       	ret
     d26:	98 ee       	ldi	r25, 0xE8	; 232
     d28:	98 0f       	add	r25, r24
     d2a:	98 30       	cpi	r25, 0x08	; 8
     d2c:	90 f4       	brcc	.+36     	; 0xd52 <DIO_InitPin+0x210>
     d2e:	41 b3       	in	r20, 0x11	; 17
     d30:	87 70       	andi	r24, 0x07	; 7
     d32:	21 e0       	ldi	r18, 0x01	; 1
     d34:	30 e0       	ldi	r19, 0x00	; 0
     d36:	b9 01       	movw	r22, r18
     d38:	02 c0       	rjmp	.+4      	; 0xd3e <DIO_InitPin+0x1fc>
     d3a:	66 0f       	add	r22, r22
     d3c:	77 1f       	adc	r23, r23
     d3e:	8a 95       	dec	r24
     d40:	e2 f7       	brpl	.-8      	; 0xd3a <DIO_InitPin+0x1f8>
     d42:	cb 01       	movw	r24, r22
     d44:	96 2f       	mov	r25, r22
     d46:	90 95       	com	r25
     d48:	94 23       	and	r25, r20
     d4a:	91 bb       	out	0x11, r25	; 17
     d4c:	92 b3       	in	r25, 0x12	; 18
     d4e:	89 2b       	or	r24, r25
     d50:	82 bb       	out	0x12, r24	; 18
     d52:	08 95       	ret

00000d54 <DIO_init>:
     d54:	0f 93       	push	r16
     d56:	1f 93       	push	r17
     d58:	cf 93       	push	r28
     d5a:	08 e4       	ldi	r16, 0x48	; 72
     d5c:	11 e0       	ldi	r17, 0x01	; 1
     d5e:	c0 e0       	ldi	r28, 0x00	; 0
     d60:	f8 01       	movw	r30, r16
     d62:	61 91       	ld	r22, Z+
     d64:	8f 01       	movw	r16, r30
     d66:	8c 2f       	mov	r24, r28
     d68:	0e 94 a1 05 	call	0xb42	; 0xb42 <DIO_InitPin>
     d6c:	cf 5f       	subi	r28, 0xFF	; 255
     d6e:	c0 32       	cpi	r28, 0x20	; 32
     d70:	b9 f7       	brne	.-18     	; 0xd60 <DIO_init+0xc>
     d72:	cf 91       	pop	r28
     d74:	1f 91       	pop	r17
     d76:	0f 91       	pop	r16
     d78:	08 95       	ret

00000d7a <DIO_WRitePin>:
     d7a:	66 23       	and	r22, r22
     d7c:	09 f4       	brne	.+2      	; 0xd80 <DIO_WRitePin+0x6>
     d7e:	4d c0       	rjmp	.+154    	; 0xe1a <DIO_WRitePin+0xa0>
     d80:	61 30       	cpi	r22, 0x01	; 1
     d82:	09 f0       	breq	.+2      	; 0xd86 <DIO_WRitePin+0xc>
     d84:	93 c0       	rjmp	.+294    	; 0xeac <DIO_WRitePin+0x132>
     d86:	90 e0       	ldi	r25, 0x00	; 0
     d88:	80 32       	cpi	r24, 0x20	; 32
     d8a:	91 05       	cpc	r25, r1
     d8c:	08 f0       	brcs	.+2      	; 0xd90 <DIO_WRitePin+0x16>
     d8e:	8e c0       	rjmp	.+284    	; 0xeac <DIO_WRitePin+0x132>
     d90:	fc 01       	movw	r30, r24
     d92:	e6 5d       	subi	r30, 0xD6	; 214
     d94:	ff 4f       	sbci	r31, 0xFF	; 255
     d96:	0c 94 75 09 	jmp	0x12ea	; 0x12ea <__tablejump2__>
     d9a:	d8 9a       	sbi	0x1b, 0	; 27
     d9c:	08 95       	ret
     d9e:	d9 9a       	sbi	0x1b, 1	; 27
     da0:	08 95       	ret
     da2:	da 9a       	sbi	0x1b, 2	; 27
     da4:	08 95       	ret
     da6:	db 9a       	sbi	0x1b, 3	; 27
     da8:	08 95       	ret
     daa:	dc 9a       	sbi	0x1b, 4	; 27
     dac:	08 95       	ret
     dae:	dd 9a       	sbi	0x1b, 5	; 27
     db0:	08 95       	ret
     db2:	de 9a       	sbi	0x1b, 6	; 27
     db4:	08 95       	ret
     db6:	df 9a       	sbi	0x1b, 7	; 27
     db8:	08 95       	ret
     dba:	c0 9a       	sbi	0x18, 0	; 24
     dbc:	08 95       	ret
     dbe:	c1 9a       	sbi	0x18, 1	; 24
     dc0:	08 95       	ret
     dc2:	c2 9a       	sbi	0x18, 2	; 24
     dc4:	08 95       	ret
     dc6:	c3 9a       	sbi	0x18, 3	; 24
     dc8:	08 95       	ret
     dca:	c4 9a       	sbi	0x18, 4	; 24
     dcc:	08 95       	ret
     dce:	c5 9a       	sbi	0x18, 5	; 24
     dd0:	08 95       	ret
     dd2:	c6 9a       	sbi	0x18, 6	; 24
     dd4:	08 95       	ret
     dd6:	c7 9a       	sbi	0x18, 7	; 24
     dd8:	08 95       	ret
     dda:	a8 9a       	sbi	0x15, 0	; 21
     ddc:	08 95       	ret
     dde:	a9 9a       	sbi	0x15, 1	; 21
     de0:	08 95       	ret
     de2:	aa 9a       	sbi	0x15, 2	; 21
     de4:	08 95       	ret
     de6:	ab 9a       	sbi	0x15, 3	; 21
     de8:	08 95       	ret
     dea:	ac 9a       	sbi	0x15, 4	; 21
     dec:	08 95       	ret
     dee:	ad 9a       	sbi	0x15, 5	; 21
     df0:	08 95       	ret
     df2:	ae 9a       	sbi	0x15, 6	; 21
     df4:	08 95       	ret
     df6:	a7 9a       	sbi	0x14, 7	; 20
     df8:	08 95       	ret
     dfa:	90 9a       	sbi	0x12, 0	; 18
     dfc:	08 95       	ret
     dfe:	91 9a       	sbi	0x12, 1	; 18
     e00:	08 95       	ret
     e02:	92 9a       	sbi	0x12, 2	; 18
     e04:	08 95       	ret
     e06:	93 9a       	sbi	0x12, 3	; 18
     e08:	08 95       	ret
     e0a:	94 9a       	sbi	0x12, 4	; 18
     e0c:	08 95       	ret
     e0e:	95 9a       	sbi	0x12, 5	; 18
     e10:	08 95       	ret
     e12:	96 9a       	sbi	0x12, 6	; 18
     e14:	08 95       	ret
     e16:	97 9a       	sbi	0x12, 7	; 18
     e18:	08 95       	ret
     e1a:	90 e0       	ldi	r25, 0x00	; 0
     e1c:	80 32       	cpi	r24, 0x20	; 32
     e1e:	91 05       	cpc	r25, r1
     e20:	08 f0       	brcs	.+2      	; 0xe24 <DIO_WRitePin+0xaa>
     e22:	44 c0       	rjmp	.+136    	; 0xeac <DIO_WRitePin+0x132>
     e24:	fc 01       	movw	r30, r24
     e26:	e6 5b       	subi	r30, 0xB6	; 182
     e28:	ff 4f       	sbci	r31, 0xFF	; 255
     e2a:	0c 94 75 09 	jmp	0x12ea	; 0x12ea <__tablejump2__>
     e2e:	d8 98       	cbi	0x1b, 0	; 27
     e30:	08 95       	ret
     e32:	d9 98       	cbi	0x1b, 1	; 27
     e34:	08 95       	ret
     e36:	da 98       	cbi	0x1b, 2	; 27
     e38:	08 95       	ret
     e3a:	db 98       	cbi	0x1b, 3	; 27
     e3c:	08 95       	ret
     e3e:	dc 98       	cbi	0x1b, 4	; 27
     e40:	08 95       	ret
     e42:	dd 98       	cbi	0x1b, 5	; 27
     e44:	08 95       	ret
     e46:	de 98       	cbi	0x1b, 6	; 27
     e48:	08 95       	ret
     e4a:	df 98       	cbi	0x1b, 7	; 27
     e4c:	08 95       	ret
     e4e:	c0 98       	cbi	0x18, 0	; 24
     e50:	08 95       	ret
     e52:	c1 98       	cbi	0x18, 1	; 24
     e54:	08 95       	ret
     e56:	c2 98       	cbi	0x18, 2	; 24
     e58:	08 95       	ret
     e5a:	c3 98       	cbi	0x18, 3	; 24
     e5c:	08 95       	ret
     e5e:	c4 98       	cbi	0x18, 4	; 24
     e60:	08 95       	ret
     e62:	c5 98       	cbi	0x18, 5	; 24
     e64:	08 95       	ret
     e66:	c6 98       	cbi	0x18, 6	; 24
     e68:	08 95       	ret
     e6a:	c7 98       	cbi	0x18, 7	; 24
     e6c:	08 95       	ret
     e6e:	a8 98       	cbi	0x15, 0	; 21
     e70:	08 95       	ret
     e72:	a9 98       	cbi	0x15, 1	; 21
     e74:	08 95       	ret
     e76:	aa 98       	cbi	0x15, 2	; 21
     e78:	08 95       	ret
     e7a:	ab 98       	cbi	0x15, 3	; 21
     e7c:	08 95       	ret
     e7e:	ac 98       	cbi	0x15, 4	; 21
     e80:	08 95       	ret
     e82:	ad 98       	cbi	0x15, 5	; 21
     e84:	08 95       	ret
     e86:	ae 98       	cbi	0x15, 6	; 21
     e88:	08 95       	ret
     e8a:	af 98       	cbi	0x15, 7	; 21
     e8c:	08 95       	ret
     e8e:	90 98       	cbi	0x12, 0	; 18
     e90:	08 95       	ret
     e92:	91 98       	cbi	0x12, 1	; 18
     e94:	08 95       	ret
     e96:	92 98       	cbi	0x12, 2	; 18
     e98:	08 95       	ret
     e9a:	93 98       	cbi	0x12, 3	; 18
     e9c:	08 95       	ret
     e9e:	94 98       	cbi	0x12, 4	; 18
     ea0:	08 95       	ret
     ea2:	95 98       	cbi	0x12, 5	; 18
     ea4:	08 95       	ret
     ea6:	96 98       	cbi	0x12, 6	; 18
     ea8:	08 95       	ret
     eaa:	97 98       	cbi	0x12, 7	; 18
     eac:	08 95       	ret

00000eae <DIO_WritePort>:
     eae:	81 30       	cpi	r24, 0x01	; 1
     eb0:	41 f0       	breq	.+16     	; 0xec2 <DIO_WritePort+0x14>
     eb2:	28 f0       	brcs	.+10     	; 0xebe <DIO_WritePort+0x10>
     eb4:	82 30       	cpi	r24, 0x02	; 2
     eb6:	39 f0       	breq	.+14     	; 0xec6 <DIO_WritePort+0x18>
     eb8:	83 30       	cpi	r24, 0x03	; 3
     eba:	39 f0       	breq	.+14     	; 0xeca <DIO_WritePort+0x1c>
     ebc:	08 95       	ret
     ebe:	6b bb       	out	0x1b, r22	; 27
     ec0:	08 95       	ret
     ec2:	68 bb       	out	0x18, r22	; 24
     ec4:	08 95       	ret
     ec6:	65 bb       	out	0x15, r22	; 21
     ec8:	08 95       	ret
     eca:	62 bb       	out	0x12, r22	; 18
     ecc:	08 95       	ret

00000ece <DIO_ReadPin>:
     ece:	48 2f       	mov	r20, r24
     ed0:	88 30       	cpi	r24, 0x08	; 8
     ed2:	20 f4       	brcc	.+8      	; 0xedc <DIO_ReadPin+0xe>
     ed4:	99 b3       	in	r25, 0x19	; 25
     ed6:	89 2f       	mov	r24, r25
     ed8:	90 e0       	ldi	r25, 0x00	; 0
     eda:	14 c0       	rjmp	.+40     	; 0xf04 <DIO_ReadPin+0x36>
     edc:	88 ef       	ldi	r24, 0xF8	; 248
     ede:	84 0f       	add	r24, r20
     ee0:	88 30       	cpi	r24, 0x08	; 8
     ee2:	10 f4       	brcc	.+4      	; 0xee8 <DIO_ReadPin+0x1a>
     ee4:	26 b3       	in	r18, 0x16	; 22
     ee6:	0b c0       	rjmp	.+22     	; 0xefe <DIO_ReadPin+0x30>
     ee8:	80 ef       	ldi	r24, 0xF0	; 240
     eea:	84 0f       	add	r24, r20
     eec:	88 30       	cpi	r24, 0x08	; 8
     eee:	10 f4       	brcc	.+4      	; 0xef4 <DIO_ReadPin+0x26>
     ef0:	23 b3       	in	r18, 0x13	; 19
     ef2:	05 c0       	rjmp	.+10     	; 0xefe <DIO_ReadPin+0x30>
     ef4:	88 ee       	ldi	r24, 0xE8	; 232
     ef6:	84 0f       	add	r24, r20
     ef8:	88 30       	cpi	r24, 0x08	; 8
     efa:	58 f4       	brcc	.+22     	; 0xf12 <DIO_ReadPin+0x44>
     efc:	20 b3       	in	r18, 0x10	; 16
     efe:	30 e0       	ldi	r19, 0x00	; 0
     f00:	47 70       	andi	r20, 0x07	; 7
     f02:	c9 01       	movw	r24, r18
     f04:	02 c0       	rjmp	.+4      	; 0xf0a <DIO_ReadPin+0x3c>
     f06:	95 95       	asr	r25
     f08:	87 95       	ror	r24
     f0a:	4a 95       	dec	r20
     f0c:	e2 f7       	brpl	.-8      	; 0xf06 <DIO_ReadPin+0x38>
     f0e:	81 70       	andi	r24, 0x01	; 1
     f10:	08 95       	ret
     f12:	80 e0       	ldi	r24, 0x00	; 0
     f14:	08 95       	ret

00000f16 <EEPROM_Write>:
     f16:	e1 99       	sbic	0x1c, 1	; 28
     f18:	fe cf       	rjmp	.-4      	; 0xf16 <EEPROM_Write>
     f1a:	9f bb       	out	0x1f, r25	; 31
     f1c:	8e bb       	out	0x1e, r24	; 30
     f1e:	6d bb       	out	0x1d, r22	; 29
     f20:	e2 9a       	sbi	0x1c, 2	; 28
     f22:	e1 9a       	sbi	0x1c, 1	; 28
     f24:	8f e0       	ldi	r24, 0x0F	; 15
     f26:	97 e2       	ldi	r25, 0x27	; 39
     f28:	01 97       	sbiw	r24, 0x01	; 1
     f2a:	f1 f7       	brne	.-4      	; 0xf28 <EEPROM_Write+0x12>
     f2c:	00 c0       	rjmp	.+0      	; 0xf2e <EEPROM_Write+0x18>
     f2e:	00 00       	nop
     f30:	08 95       	ret

00000f32 <EEPROM_Read>:
     f32:	e1 99       	sbic	0x1c, 1	; 28
     f34:	fe cf       	rjmp	.-4      	; 0xf32 <EEPROM_Read>
     f36:	9f bb       	out	0x1f, r25	; 31
     f38:	8e bb       	out	0x1e, r24	; 30
     f3a:	e0 9a       	sbi	0x1c, 0	; 28
     f3c:	8d b3       	in	r24, 0x1d	; 29
     f3e:	08 95       	ret

00000f40 <__vector_17>:
     f40:	1f 92       	push	r1
     f42:	0f 92       	push	r0
     f44:	0f b6       	in	r0, 0x3f	; 63
     f46:	0f 92       	push	r0
     f48:	11 24       	eor	r1, r1
     f4a:	2f 93       	push	r18
     f4c:	3f 93       	push	r19
     f4e:	4f 93       	push	r20
     f50:	5f 93       	push	r21
     f52:	6f 93       	push	r22
     f54:	7f 93       	push	r23
     f56:	8f 93       	push	r24
     f58:	9f 93       	push	r25
     f5a:	af 93       	push	r26
     f5c:	bf 93       	push	r27
     f5e:	ef 93       	push	r30
     f60:	ff 93       	push	r31
     f62:	e0 91 72 01 	lds	r30, 0x0172	; 0x800172 <fptr>
     f66:	f0 91 73 01 	lds	r31, 0x0173	; 0x800173 <fptr+0x1>
     f6a:	30 97       	sbiw	r30, 0x00	; 0
     f6c:	09 f0       	breq	.+2      	; 0xf70 <__vector_17+0x30>
     f6e:	09 95       	icall
     f70:	ff 91       	pop	r31
     f72:	ef 91       	pop	r30
     f74:	bf 91       	pop	r27
     f76:	af 91       	pop	r26
     f78:	9f 91       	pop	r25
     f7a:	8f 91       	pop	r24
     f7c:	7f 91       	pop	r23
     f7e:	6f 91       	pop	r22
     f80:	5f 91       	pop	r21
     f82:	4f 91       	pop	r20
     f84:	3f 91       	pop	r19
     f86:	2f 91       	pop	r18
     f88:	0f 90       	pop	r0
     f8a:	0f be       	out	0x3f, r0	; 63
     f8c:	0f 90       	pop	r0
     f8e:	1f 90       	pop	r1
     f90:	18 95       	reti

00000f92 <EXI_SetCallBack>:
     f92:	81 30       	cpi	r24, 0x01	; 1
     f94:	49 f0       	breq	.+18     	; 0xfa8 <EXI_SetCallBack+0x16>
     f96:	18 f0       	brcs	.+6      	; 0xf9e <EXI_SetCallBack+0xc>
     f98:	82 30       	cpi	r24, 0x02	; 2
     f9a:	59 f0       	breq	.+22     	; 0xfb2 <EXI_SetCallBack+0x20>
     f9c:	08 95       	ret
     f9e:	70 93 79 01 	sts	0x0179, r23	; 0x800179 <pf_INT0+0x1>
     fa2:	60 93 78 01 	sts	0x0178, r22	; 0x800178 <pf_INT0>
     fa6:	08 95       	ret
     fa8:	70 93 77 01 	sts	0x0177, r23	; 0x800177 <pf_INT1+0x1>
     fac:	60 93 76 01 	sts	0x0176, r22	; 0x800176 <pf_INT1>
     fb0:	08 95       	ret
     fb2:	70 93 75 01 	sts	0x0175, r23	; 0x800175 <pf_INT2+0x1>
     fb6:	60 93 74 01 	sts	0x0174, r22	; 0x800174 <pf_INT2>
     fba:	08 95       	ret

00000fbc <EXI_Enable>:
     fbc:	81 30       	cpi	r24, 0x01	; 1
     fbe:	39 f0       	breq	.+14     	; 0xfce <EXI_Enable+0x12>
     fc0:	18 f0       	brcs	.+6      	; 0xfc8 <EXI_Enable+0xc>
     fc2:	82 30       	cpi	r24, 0x02	; 2
     fc4:	39 f0       	breq	.+14     	; 0xfd4 <EXI_Enable+0x18>
     fc6:	08 95       	ret
     fc8:	8b b7       	in	r24, 0x3b	; 59
     fca:	80 64       	ori	r24, 0x40	; 64
     fcc:	05 c0       	rjmp	.+10     	; 0xfd8 <EXI_Enable+0x1c>
     fce:	8b b7       	in	r24, 0x3b	; 59
     fd0:	80 68       	ori	r24, 0x80	; 128
     fd2:	02 c0       	rjmp	.+4      	; 0xfd8 <EXI_Enable+0x1c>
     fd4:	8b b7       	in	r24, 0x3b	; 59
     fd6:	80 62       	ori	r24, 0x20	; 32
     fd8:	8b bf       	out	0x3b, r24	; 59
     fda:	08 95       	ret

00000fdc <EXI_Trigger>:
     fdc:	85 30       	cpi	r24, 0x05	; 5
     fde:	09 f4       	brne	.+2      	; 0xfe2 <EXI_Trigger+0x6>
     fe0:	43 c0       	rjmp	.+134    	; 0x1068 <EXI_Trigger+0x8c>
     fe2:	61 30       	cpi	r22, 0x01	; 1
     fe4:	b1 f0       	breq	.+44     	; 0x1012 <EXI_Trigger+0x36>
     fe6:	28 f0       	brcs	.+10     	; 0xff2 <EXI_Trigger+0x16>
     fe8:	62 30       	cpi	r22, 0x02	; 2
     fea:	e9 f0       	breq	.+58     	; 0x1026 <EXI_Trigger+0x4a>
     fec:	63 30       	cpi	r22, 0x03	; 3
     fee:	59 f1       	breq	.+86     	; 0x1046 <EXI_Trigger+0x6a>
     ff0:	08 95       	ret
     ff2:	86 30       	cpi	r24, 0x06	; 6
     ff4:	31 f4       	brne	.+12     	; 0x1002 <EXI_Trigger+0x26>
     ff6:	85 b7       	in	r24, 0x35	; 53
     ff8:	8e 7f       	andi	r24, 0xFE	; 254
     ffa:	85 bf       	out	0x35, r24	; 53
     ffc:	85 b7       	in	r24, 0x35	; 53
     ffe:	8d 7f       	andi	r24, 0xFD	; 253
    1000:	31 c0       	rjmp	.+98     	; 0x1064 <EXI_Trigger+0x88>
    1002:	81 30       	cpi	r24, 0x01	; 1
    1004:	d9 f5       	brne	.+118    	; 0x107c <EXI_Trigger+0xa0>
    1006:	85 b7       	in	r24, 0x35	; 53
    1008:	8b 7f       	andi	r24, 0xFB	; 251
    100a:	85 bf       	out	0x35, r24	; 53
    100c:	85 b7       	in	r24, 0x35	; 53
    100e:	87 7f       	andi	r24, 0xF7	; 247
    1010:	29 c0       	rjmp	.+82     	; 0x1064 <EXI_Trigger+0x88>
    1012:	87 30       	cpi	r24, 0x07	; 7
    1014:	19 f4       	brne	.+6      	; 0x101c <EXI_Trigger+0x40>
    1016:	85 b7       	in	r24, 0x35	; 53
    1018:	87 7f       	andi	r24, 0xF7	; 247
    101a:	19 c0       	rjmp	.+50     	; 0x104e <EXI_Trigger+0x72>
    101c:	86 30       	cpi	r24, 0x06	; 6
    101e:	71 f5       	brne	.+92     	; 0x107c <EXI_Trigger+0xa0>
    1020:	85 b7       	in	r24, 0x35	; 53
    1022:	8d 7f       	andi	r24, 0xFD	; 253
    1024:	1c c0       	rjmp	.+56     	; 0x105e <EXI_Trigger+0x82>
    1026:	87 30       	cpi	r24, 0x07	; 7
    1028:	31 f4       	brne	.+12     	; 0x1036 <EXI_Trigger+0x5a>
    102a:	85 b7       	in	r24, 0x35	; 53
    102c:	88 60       	ori	r24, 0x08	; 8
    102e:	85 bf       	out	0x35, r24	; 53
    1030:	85 b7       	in	r24, 0x35	; 53
    1032:	8b 7f       	andi	r24, 0xFB	; 251
    1034:	17 c0       	rjmp	.+46     	; 0x1064 <EXI_Trigger+0x88>
    1036:	86 30       	cpi	r24, 0x06	; 6
    1038:	09 f5       	brne	.+66     	; 0x107c <EXI_Trigger+0xa0>
    103a:	85 b7       	in	r24, 0x35	; 53
    103c:	82 60       	ori	r24, 0x02	; 2
    103e:	85 bf       	out	0x35, r24	; 53
    1040:	85 b7       	in	r24, 0x35	; 53
    1042:	8e 7f       	andi	r24, 0xFE	; 254
    1044:	0f c0       	rjmp	.+30     	; 0x1064 <EXI_Trigger+0x88>
    1046:	87 30       	cpi	r24, 0x07	; 7
    1048:	31 f4       	brne	.+12     	; 0x1056 <EXI_Trigger+0x7a>
    104a:	85 b7       	in	r24, 0x35	; 53
    104c:	88 60       	ori	r24, 0x08	; 8
    104e:	85 bf       	out	0x35, r24	; 53
    1050:	85 b7       	in	r24, 0x35	; 53
    1052:	84 60       	ori	r24, 0x04	; 4
    1054:	07 c0       	rjmp	.+14     	; 0x1064 <EXI_Trigger+0x88>
    1056:	86 30       	cpi	r24, 0x06	; 6
    1058:	89 f4       	brne	.+34     	; 0x107c <EXI_Trigger+0xa0>
    105a:	85 b7       	in	r24, 0x35	; 53
    105c:	82 60       	ori	r24, 0x02	; 2
    105e:	85 bf       	out	0x35, r24	; 53
    1060:	85 b7       	in	r24, 0x35	; 53
    1062:	81 60       	ori	r24, 0x01	; 1
    1064:	85 bf       	out	0x35, r24	; 53
    1066:	08 95       	ret
    1068:	62 30       	cpi	r22, 0x02	; 2
    106a:	29 f0       	breq	.+10     	; 0x1076 <EXI_Trigger+0x9a>
    106c:	63 30       	cpi	r22, 0x03	; 3
    106e:	19 f4       	brne	.+6      	; 0x1076 <EXI_Trigger+0x9a>
    1070:	84 b7       	in	r24, 0x34	; 52
    1072:	80 64       	ori	r24, 0x40	; 64
    1074:	02 c0       	rjmp	.+4      	; 0x107a <EXI_Trigger+0x9e>
    1076:	84 b7       	in	r24, 0x34	; 52
    1078:	8f 7b       	andi	r24, 0xBF	; 191
    107a:	84 bf       	out	0x34, r24	; 52
    107c:	08 95       	ret

0000107e <__vector_1>:
    107e:	1f 92       	push	r1
    1080:	0f 92       	push	r0
    1082:	0f b6       	in	r0, 0x3f	; 63
    1084:	0f 92       	push	r0
    1086:	11 24       	eor	r1, r1
    1088:	2f 93       	push	r18
    108a:	3f 93       	push	r19
    108c:	4f 93       	push	r20
    108e:	5f 93       	push	r21
    1090:	6f 93       	push	r22
    1092:	7f 93       	push	r23
    1094:	8f 93       	push	r24
    1096:	9f 93       	push	r25
    1098:	af 93       	push	r26
    109a:	bf 93       	push	r27
    109c:	ef 93       	push	r30
    109e:	ff 93       	push	r31
    10a0:	e0 91 78 01 	lds	r30, 0x0178	; 0x800178 <pf_INT0>
    10a4:	f0 91 79 01 	lds	r31, 0x0179	; 0x800179 <pf_INT0+0x1>
    10a8:	30 97       	sbiw	r30, 0x00	; 0
    10aa:	09 f0       	breq	.+2      	; 0x10ae <__vector_1+0x30>
    10ac:	09 95       	icall
    10ae:	ff 91       	pop	r31
    10b0:	ef 91       	pop	r30
    10b2:	bf 91       	pop	r27
    10b4:	af 91       	pop	r26
    10b6:	9f 91       	pop	r25
    10b8:	8f 91       	pop	r24
    10ba:	7f 91       	pop	r23
    10bc:	6f 91       	pop	r22
    10be:	5f 91       	pop	r21
    10c0:	4f 91       	pop	r20
    10c2:	3f 91       	pop	r19
    10c4:	2f 91       	pop	r18
    10c6:	0f 90       	pop	r0
    10c8:	0f be       	out	0x3f, r0	; 63
    10ca:	0f 90       	pop	r0
    10cc:	1f 90       	pop	r1
    10ce:	18 95       	reti

000010d0 <__vector_2>:
    10d0:	1f 92       	push	r1
    10d2:	0f 92       	push	r0
    10d4:	0f b6       	in	r0, 0x3f	; 63
    10d6:	0f 92       	push	r0
    10d8:	11 24       	eor	r1, r1
    10da:	2f 93       	push	r18
    10dc:	3f 93       	push	r19
    10de:	4f 93       	push	r20
    10e0:	5f 93       	push	r21
    10e2:	6f 93       	push	r22
    10e4:	7f 93       	push	r23
    10e6:	8f 93       	push	r24
    10e8:	9f 93       	push	r25
    10ea:	af 93       	push	r26
    10ec:	bf 93       	push	r27
    10ee:	ef 93       	push	r30
    10f0:	ff 93       	push	r31
    10f2:	80 91 78 01 	lds	r24, 0x0178	; 0x800178 <pf_INT0>
    10f6:	90 91 79 01 	lds	r25, 0x0179	; 0x800179 <pf_INT0+0x1>
    10fa:	89 2b       	or	r24, r25
    10fc:	29 f0       	breq	.+10     	; 0x1108 <__vector_2+0x38>
    10fe:	e0 91 76 01 	lds	r30, 0x0176	; 0x800176 <pf_INT1>
    1102:	f0 91 77 01 	lds	r31, 0x0177	; 0x800177 <pf_INT1+0x1>
    1106:	09 95       	icall
    1108:	ff 91       	pop	r31
    110a:	ef 91       	pop	r30
    110c:	bf 91       	pop	r27
    110e:	af 91       	pop	r26
    1110:	9f 91       	pop	r25
    1112:	8f 91       	pop	r24
    1114:	7f 91       	pop	r23
    1116:	6f 91       	pop	r22
    1118:	5f 91       	pop	r21
    111a:	4f 91       	pop	r20
    111c:	3f 91       	pop	r19
    111e:	2f 91       	pop	r18
    1120:	0f 90       	pop	r0
    1122:	0f be       	out	0x3f, r0	; 63
    1124:	0f 90       	pop	r0
    1126:	1f 90       	pop	r1
    1128:	18 95       	reti

0000112a <__vector_3>:
    112a:	1f 92       	push	r1
    112c:	0f 92       	push	r0
    112e:	0f b6       	in	r0, 0x3f	; 63
    1130:	0f 92       	push	r0
    1132:	11 24       	eor	r1, r1
    1134:	2f 93       	push	r18
    1136:	3f 93       	push	r19
    1138:	4f 93       	push	r20
    113a:	5f 93       	push	r21
    113c:	6f 93       	push	r22
    113e:	7f 93       	push	r23
    1140:	8f 93       	push	r24
    1142:	9f 93       	push	r25
    1144:	af 93       	push	r26
    1146:	bf 93       	push	r27
    1148:	ef 93       	push	r30
    114a:	ff 93       	push	r31
    114c:	80 91 78 01 	lds	r24, 0x0178	; 0x800178 <pf_INT0>
    1150:	90 91 79 01 	lds	r25, 0x0179	; 0x800179 <pf_INT0+0x1>
    1154:	89 2b       	or	r24, r25
    1156:	29 f0       	breq	.+10     	; 0x1162 <__vector_3+0x38>
    1158:	e0 91 74 01 	lds	r30, 0x0174	; 0x800174 <pf_INT2>
    115c:	f0 91 75 01 	lds	r31, 0x0175	; 0x800175 <pf_INT2+0x1>
    1160:	09 95       	icall
    1162:	ff 91       	pop	r31
    1164:	ef 91       	pop	r30
    1166:	bf 91       	pop	r27
    1168:	af 91       	pop	r26
    116a:	9f 91       	pop	r25
    116c:	8f 91       	pop	r24
    116e:	7f 91       	pop	r23
    1170:	6f 91       	pop	r22
    1172:	5f 91       	pop	r21
    1174:	4f 91       	pop	r20
    1176:	3f 91       	pop	r19
    1178:	2f 91       	pop	r18
    117a:	0f 90       	pop	r0
    117c:	0f be       	out	0x3f, r0	; 63
    117e:	0f 90       	pop	r0
    1180:	1f 90       	pop	r1
    1182:	18 95       	reti

00001184 <EEPROM_WritePassword_4Number>:
    1184:	cf 92       	push	r12
    1186:	df 92       	push	r13
    1188:	ef 92       	push	r14
    118a:	ff 92       	push	r15
    118c:	0f 93       	push	r16
    118e:	1f 93       	push	r17
    1190:	cf 93       	push	r28
    1192:	df 93       	push	r29
    1194:	8c 01       	movw	r16, r24
    1196:	7b 01       	movw	r14, r22
    1198:	ec 01       	movw	r28, r24
    119a:	24 96       	adiw	r28, 0x04	; 4
    119c:	8a e0       	ldi	r24, 0x0A	; 10
    119e:	c8 2e       	mov	r12, r24
    11a0:	d1 2c       	mov	r13, r1
    11a2:	c7 01       	movw	r24, r14
    11a4:	b6 01       	movw	r22, r12
    11a6:	0e 94 20 09 	call	0x1240	; 0x1240 <__udivmodhi4>
    11aa:	7b 01       	movw	r14, r22
    11ac:	68 2f       	mov	r22, r24
    11ae:	ce 01       	movw	r24, r28
    11b0:	0e 94 8b 07 	call	0xf16	; 0xf16 <EEPROM_Write>
    11b4:	21 97       	sbiw	r28, 0x01	; 1
    11b6:	0c 17       	cp	r16, r28
    11b8:	1d 07       	cpc	r17, r29
    11ba:	99 f7       	brne	.-26     	; 0x11a2 <EEPROM_WritePassword_4Number+0x1e>
    11bc:	df 91       	pop	r29
    11be:	cf 91       	pop	r28
    11c0:	1f 91       	pop	r17
    11c2:	0f 91       	pop	r16
    11c4:	ff 90       	pop	r15
    11c6:	ef 90       	pop	r14
    11c8:	df 90       	pop	r13
    11ca:	cf 90       	pop	r12
    11cc:	08 95       	ret

000011ce <EEPROM_ReadPassword_4Number>:
    11ce:	af 92       	push	r10
    11d0:	bf 92       	push	r11
    11d2:	cf 92       	push	r12
    11d4:	df 92       	push	r13
    11d6:	ef 92       	push	r14
    11d8:	ff 92       	push	r15
    11da:	0f 93       	push	r16
    11dc:	1f 93       	push	r17
    11de:	cf 93       	push	r28
    11e0:	df 93       	push	r29
    11e2:	ec 01       	movw	r28, r24
    11e4:	21 96       	adiw	r28, 0x01	; 1
    11e6:	6c 01       	movw	r12, r24
    11e8:	25 e0       	ldi	r18, 0x05	; 5
    11ea:	c2 0e       	add	r12, r18
    11ec:	d1 1c       	adc	r13, r1
    11ee:	88 ee       	ldi	r24, 0xE8	; 232
    11f0:	e8 2e       	mov	r14, r24
    11f2:	83 e0       	ldi	r24, 0x03	; 3
    11f4:	f8 2e       	mov	r15, r24
    11f6:	00 e0       	ldi	r16, 0x00	; 0
    11f8:	10 e0       	ldi	r17, 0x00	; 0
    11fa:	9a e0       	ldi	r25, 0x0A	; 10
    11fc:	a9 2e       	mov	r10, r25
    11fe:	b1 2c       	mov	r11, r1
    1200:	ce 01       	movw	r24, r28
    1202:	0e 94 99 07 	call	0xf32	; 0xf32 <EEPROM_Read>
    1206:	28 2f       	mov	r18, r24
    1208:	2e 9d       	mul	r18, r14
    120a:	c0 01       	movw	r24, r0
    120c:	2f 9d       	mul	r18, r15
    120e:	90 0d       	add	r25, r0
    1210:	11 24       	eor	r1, r1
    1212:	08 0f       	add	r16, r24
    1214:	19 1f       	adc	r17, r25
    1216:	c7 01       	movw	r24, r14
    1218:	b5 01       	movw	r22, r10
    121a:	0e 94 20 09 	call	0x1240	; 0x1240 <__udivmodhi4>
    121e:	7b 01       	movw	r14, r22
    1220:	21 96       	adiw	r28, 0x01	; 1
    1222:	cc 16       	cp	r12, r28
    1224:	dd 06       	cpc	r13, r29
    1226:	61 f7       	brne	.-40     	; 0x1200 <EEPROM_ReadPassword_4Number+0x32>
    1228:	c8 01       	movw	r24, r16
    122a:	df 91       	pop	r29
    122c:	cf 91       	pop	r28
    122e:	1f 91       	pop	r17
    1230:	0f 91       	pop	r16
    1232:	ff 90       	pop	r15
    1234:	ef 90       	pop	r14
    1236:	df 90       	pop	r13
    1238:	cf 90       	pop	r12
    123a:	bf 90       	pop	r11
    123c:	af 90       	pop	r10
    123e:	08 95       	ret

00001240 <__udivmodhi4>:
    1240:	aa 1b       	sub	r26, r26
    1242:	bb 1b       	sub	r27, r27
    1244:	51 e1       	ldi	r21, 0x11	; 17
    1246:	07 c0       	rjmp	.+14     	; 0x1256 <__udivmodhi4_ep>

00001248 <__udivmodhi4_loop>:
    1248:	aa 1f       	adc	r26, r26
    124a:	bb 1f       	adc	r27, r27
    124c:	a6 17       	cp	r26, r22
    124e:	b7 07       	cpc	r27, r23
    1250:	10 f0       	brcs	.+4      	; 0x1256 <__udivmodhi4_ep>
    1252:	a6 1b       	sub	r26, r22
    1254:	b7 0b       	sbc	r27, r23

00001256 <__udivmodhi4_ep>:
    1256:	88 1f       	adc	r24, r24
    1258:	99 1f       	adc	r25, r25
    125a:	5a 95       	dec	r21
    125c:	a9 f7       	brne	.-22     	; 0x1248 <__udivmodhi4_loop>
    125e:	80 95       	com	r24
    1260:	90 95       	com	r25
    1262:	bc 01       	movw	r22, r24
    1264:	cd 01       	movw	r24, r26
    1266:	08 95       	ret

00001268 <__udivmodsi4>:
    1268:	a1 e2       	ldi	r26, 0x21	; 33
    126a:	1a 2e       	mov	r1, r26
    126c:	aa 1b       	sub	r26, r26
    126e:	bb 1b       	sub	r27, r27
    1270:	fd 01       	movw	r30, r26
    1272:	0d c0       	rjmp	.+26     	; 0x128e <__udivmodsi4_ep>

00001274 <__udivmodsi4_loop>:
    1274:	aa 1f       	adc	r26, r26
    1276:	bb 1f       	adc	r27, r27
    1278:	ee 1f       	adc	r30, r30
    127a:	ff 1f       	adc	r31, r31
    127c:	a2 17       	cp	r26, r18
    127e:	b3 07       	cpc	r27, r19
    1280:	e4 07       	cpc	r30, r20
    1282:	f5 07       	cpc	r31, r21
    1284:	20 f0       	brcs	.+8      	; 0x128e <__udivmodsi4_ep>
    1286:	a2 1b       	sub	r26, r18
    1288:	b3 0b       	sbc	r27, r19
    128a:	e4 0b       	sbc	r30, r20
    128c:	f5 0b       	sbc	r31, r21

0000128e <__udivmodsi4_ep>:
    128e:	66 1f       	adc	r22, r22
    1290:	77 1f       	adc	r23, r23
    1292:	88 1f       	adc	r24, r24
    1294:	99 1f       	adc	r25, r25
    1296:	1a 94       	dec	r1
    1298:	69 f7       	brne	.-38     	; 0x1274 <__udivmodsi4_loop>
    129a:	60 95       	com	r22
    129c:	70 95       	com	r23
    129e:	80 95       	com	r24
    12a0:	90 95       	com	r25
    12a2:	9b 01       	movw	r18, r22
    12a4:	ac 01       	movw	r20, r24
    12a6:	bd 01       	movw	r22, r26
    12a8:	cf 01       	movw	r24, r30
    12aa:	08 95       	ret

000012ac <__divmodsi4>:
    12ac:	05 2e       	mov	r0, r21
    12ae:	97 fb       	bst	r25, 7
    12b0:	1e f4       	brtc	.+6      	; 0x12b8 <__divmodsi4+0xc>
    12b2:	00 94       	com	r0
    12b4:	0e 94 6d 09 	call	0x12da	; 0x12da <__negsi2>
    12b8:	57 fd       	sbrc	r21, 7
    12ba:	07 d0       	rcall	.+14     	; 0x12ca <__divmodsi4_neg2>
    12bc:	0e 94 34 09 	call	0x1268	; 0x1268 <__udivmodsi4>
    12c0:	07 fc       	sbrc	r0, 7
    12c2:	03 d0       	rcall	.+6      	; 0x12ca <__divmodsi4_neg2>
    12c4:	4e f4       	brtc	.+18     	; 0x12d8 <__divmodsi4_exit>
    12c6:	0c 94 6d 09 	jmp	0x12da	; 0x12da <__negsi2>

000012ca <__divmodsi4_neg2>:
    12ca:	50 95       	com	r21
    12cc:	40 95       	com	r20
    12ce:	30 95       	com	r19
    12d0:	21 95       	neg	r18
    12d2:	3f 4f       	sbci	r19, 0xFF	; 255
    12d4:	4f 4f       	sbci	r20, 0xFF	; 255
    12d6:	5f 4f       	sbci	r21, 0xFF	; 255

000012d8 <__divmodsi4_exit>:
    12d8:	08 95       	ret

000012da <__negsi2>:
    12da:	90 95       	com	r25
    12dc:	80 95       	com	r24
    12de:	70 95       	com	r23
    12e0:	61 95       	neg	r22
    12e2:	7f 4f       	sbci	r23, 0xFF	; 255
    12e4:	8f 4f       	sbci	r24, 0xFF	; 255
    12e6:	9f 4f       	sbci	r25, 0xFF	; 255
    12e8:	08 95       	ret

000012ea <__tablejump2__>:
    12ea:	ee 0f       	add	r30, r30
    12ec:	ff 1f       	adc	r31, r31
    12ee:	05 90       	lpm	r0, Z+
    12f0:	f4 91       	lpm	r31, Z
    12f2:	e0 2d       	mov	r30, r0
    12f4:	09 94       	ijmp

000012f6 <__umulhisi3>:
    12f6:	a2 9f       	mul	r26, r18
    12f8:	b0 01       	movw	r22, r0
    12fa:	b3 9f       	mul	r27, r19
    12fc:	c0 01       	movw	r24, r0
    12fe:	a3 9f       	mul	r26, r19
    1300:	70 0d       	add	r23, r0
    1302:	81 1d       	adc	r24, r1
    1304:	11 24       	eor	r1, r1
    1306:	91 1d       	adc	r25, r1
    1308:	b2 9f       	mul	r27, r18
    130a:	70 0d       	add	r23, r0
    130c:	81 1d       	adc	r24, r1
    130e:	11 24       	eor	r1, r1
    1310:	91 1d       	adc	r25, r1
    1312:	08 95       	ret

00001314 <_exit>:
    1314:	f8 94       	cli

00001316 <__stop_program>:
    1316:	ff cf       	rjmp	.-2      	; 0x1316 <__stop_program>
